
simple:     file format elf32-littleriscv


Disassembly of section .init:

00000000 <_start>:
   0:	10001197          	auipc	gp,0x10001
   4:	d2018193          	addi	gp,gp,-736 # 10000d20 <__global_pointer$>
   8:	10004117          	auipc	sp,0x10004
   c:	ff810113          	addi	sp,sp,-8 # 10004000 <__freertos_irq_stack_top>
  10:	00000d13          	li	s10,0
  14:	00000d93          	li	s11,0
  18:	00003517          	auipc	a0,0x3
  1c:	58050513          	addi	a0,a0,1408 # 3598 <_data_lma>
  20:	10000597          	auipc	a1,0x10000
  24:	fe058593          	addi	a1,a1,-32 # 10000000 <_data>
  28:	80818613          	addi	a2,gp,-2040 # 10000528 <__bss_start>
  2c:	00c5fc63          	bgeu	a1,a2,44 <_start+0x44>
  30:	00052283          	lw	t0,0(a0)
  34:	0055a023          	sw	t0,0(a1)
  38:	00450513          	addi	a0,a0,4
  3c:	00458593          	addi	a1,a1,4
  40:	fec5e8e3          	bltu	a1,a2,30 <_start+0x30>
  44:	80818513          	addi	a0,gp,-2040 # 10000528 <__bss_start>
  48:	81018593          	addi	a1,gp,-2032 # 10000530 <_end>
  4c:	00b57863          	bgeu	a0,a1,5c <_start+0x5c>
  50:	00052023          	sw	zero,0(a0)
  54:	00450513          	addi	a0,a0,4
  58:	feb56ce3          	bltu	a0,a1,50 <_start+0x50>
  5c:	3f9020ef          	jal	ra,2c54 <_init>
  60:	7b8010ef          	jal	ra,1818 <main>
  64:	00100d13          	li	s10,1

00000068 <loop>:
  68:	0000006f          	j	68 <loop>

Disassembly of section .text:

0000006c <trap_entry>:
      6c:	f8010113          	addi	sp,sp,-128
      70:	00112223          	sw	ra,4(sp)
      74:	00212423          	sw	sp,8(sp)
      78:	00312623          	sw	gp,12(sp)
      7c:	00412823          	sw	tp,16(sp)
      80:	00512a23          	sw	t0,20(sp)
      84:	00612c23          	sw	t1,24(sp)
      88:	00712e23          	sw	t2,28(sp)
      8c:	02812023          	sw	s0,32(sp)
      90:	02912223          	sw	s1,36(sp)
      94:	02a12423          	sw	a0,40(sp)
      98:	02b12623          	sw	a1,44(sp)
      9c:	02c12823          	sw	a2,48(sp)
      a0:	02d12a23          	sw	a3,52(sp)
      a4:	02e12c23          	sw	a4,56(sp)
      a8:	02f12e23          	sw	a5,60(sp)
      ac:	05012023          	sw	a6,64(sp)
      b0:	05112223          	sw	a7,68(sp)
      b4:	05212423          	sw	s2,72(sp)
      b8:	05312623          	sw	s3,76(sp)
      bc:	05412823          	sw	s4,80(sp)
      c0:	05512a23          	sw	s5,84(sp)
      c4:	05612c23          	sw	s6,88(sp)
      c8:	05712e23          	sw	s7,92(sp)
      cc:	07812023          	sw	s8,96(sp)
      d0:	07912223          	sw	s9,100(sp)
      d4:	07c12823          	sw	t3,112(sp)
      d8:	07d12a23          	sw	t4,116(sp)
      dc:	07e12c23          	sw	t5,120(sp)
      e0:	07f12e23          	sw	t6,124(sp)
      e4:	34202573          	csrr	a0,mcause
      e8:	33d020ef          	jal	ra,2c24 <trap_handler>
      ec:	00412083          	lw	ra,4(sp)
      f0:	00812103          	lw	sp,8(sp)
      f4:	00c12183          	lw	gp,12(sp)
      f8:	01012203          	lw	tp,16(sp)
      fc:	01412283          	lw	t0,20(sp)
     100:	01812303          	lw	t1,24(sp)
     104:	01c12383          	lw	t2,28(sp)
     108:	02012403          	lw	s0,32(sp)
     10c:	02412483          	lw	s1,36(sp)
     110:	02812503          	lw	a0,40(sp)
     114:	02c12583          	lw	a1,44(sp)
     118:	03012603          	lw	a2,48(sp)
     11c:	03412683          	lw	a3,52(sp)
     120:	03812703          	lw	a4,56(sp)
     124:	03c12783          	lw	a5,60(sp)
     128:	04012803          	lw	a6,64(sp)
     12c:	04412883          	lw	a7,68(sp)
     130:	04812903          	lw	s2,72(sp)
     134:	04c12983          	lw	s3,76(sp)
     138:	05012a03          	lw	s4,80(sp)
     13c:	05412a83          	lw	s5,84(sp)
     140:	05812b03          	lw	s6,88(sp)
     144:	05c12b83          	lw	s7,92(sp)
     148:	06012c03          	lw	s8,96(sp)
     14c:	06412c83          	lw	s9,100(sp)
     150:	07012e03          	lw	t3,112(sp)
     154:	07412e83          	lw	t4,116(sp)
     158:	07812f03          	lw	t5,120(sp)
     15c:	07c12f83          	lw	t6,124(sp)
     160:	08010113          	addi	sp,sp,128
     164:	30200073          	mret
     168:	0000006f          	j	168 <trap_entry+0xfc>

0000016c <gpio_init>:
     16c:	ff010113          	addi	sp,sp,-16
     170:	00812623          	sw	s0,12(sp)
     174:	01010413          	addi	s0,sp,16
     178:	400007b7          	lui	a5,0x40000
     17c:	0007a703          	lw	a4,0(a5) # 40000000 <__freertos_irq_stack_top+0x2fffc000>
     180:	400007b7          	lui	a5,0x40000
     184:	00176713          	ori	a4,a4,1
     188:	00e7a023          	sw	a4,0(a5) # 40000000 <__freertos_irq_stack_top+0x2fffc000>
     18c:	400007b7          	lui	a5,0x40000
     190:	0007a703          	lw	a4,0(a5) # 40000000 <__freertos_irq_stack_top+0x2fffc000>
     194:	400007b7          	lui	a5,0x40000
     198:	00476713          	ori	a4,a4,4
     19c:	00e7a023          	sw	a4,0(a5) # 40000000 <__freertos_irq_stack_top+0x2fffc000>
     1a0:	400007b7          	lui	a5,0x40000
     1a4:	0007a703          	lw	a4,0(a5) # 40000000 <__freertos_irq_stack_top+0x2fffc000>
     1a8:	400007b7          	lui	a5,0x40000
     1ac:	01076713          	ori	a4,a4,16
     1b0:	00e7a023          	sw	a4,0(a5) # 40000000 <__freertos_irq_stack_top+0x2fffc000>
     1b4:	400007b7          	lui	a5,0x40000
     1b8:	0007a703          	lw	a4,0(a5) # 40000000 <__freertos_irq_stack_top+0x2fffc000>
     1bc:	400007b7          	lui	a5,0x40000
     1c0:	08076713          	ori	a4,a4,128
     1c4:	00e7a023          	sw	a4,0(a5) # 40000000 <__freertos_irq_stack_top+0x2fffc000>
     1c8:	400007b7          	lui	a5,0x40000
     1cc:	0007a703          	lw	a4,0(a5) # 40000000 <__freertos_irq_stack_top+0x2fffc000>
     1d0:	400007b7          	lui	a5,0x40000
     1d4:	20076713          	ori	a4,a4,512
     1d8:	00e7a023          	sw	a4,0(a5) # 40000000 <__freertos_irq_stack_top+0x2fffc000>
     1dc:	400007b7          	lui	a5,0x40000
     1e0:	0007a683          	lw	a3,0(a5) # 40000000 <__freertos_irq_stack_top+0x2fffc000>
     1e4:	400007b7          	lui	a5,0x40000
     1e8:	00001737          	lui	a4,0x1
     1ec:	80070713          	addi	a4,a4,-2048 # 800 <lcd_configure+0x300>
     1f0:	00e6e733          	or	a4,a3,a4
     1f4:	00e7a023          	sw	a4,0(a5) # 40000000 <__freertos_irq_stack_top+0x2fffc000>
     1f8:	400007b7          	lui	a5,0x40000
     1fc:	0007a683          	lw	a3,0(a5) # 40000000 <__freertos_irq_stack_top+0x2fffc000>
     200:	400007b7          	lui	a5,0x40000
     204:	00002737          	lui	a4,0x2
     208:	00e6e733          	or	a4,a3,a4
     20c:	00e7a023          	sw	a4,0(a5) # 40000000 <__freertos_irq_stack_top+0x2fffc000>
     210:	400007b7          	lui	a5,0x40000
     214:	0007a683          	lw	a3,0(a5) # 40000000 <__freertos_irq_stack_top+0x2fffc000>
     218:	400007b7          	lui	a5,0x40000
     21c:	00008737          	lui	a4,0x8
     220:	00e6e733          	or	a4,a3,a4
     224:	00e7a023          	sw	a4,0(a5) # 40000000 <__freertos_irq_stack_top+0x2fffc000>
     228:	400007b7          	lui	a5,0x40000
     22c:	0007a683          	lw	a3,0(a5) # 40000000 <__freertos_irq_stack_top+0x2fffc000>
     230:	400007b7          	lui	a5,0x40000
     234:	00010737          	lui	a4,0x10
     238:	00e6e733          	or	a4,a3,a4
     23c:	00e7a023          	sw	a4,0(a5) # 40000000 <__freertos_irq_stack_top+0x2fffc000>
     240:	400007b7          	lui	a5,0x40000
     244:	0007a683          	lw	a3,0(a5) # 40000000 <__freertos_irq_stack_top+0x2fffc000>
     248:	400007b7          	lui	a5,0x40000
     24c:	00040737          	lui	a4,0x40
     250:	00e6e733          	or	a4,a3,a4
     254:	00e7a023          	sw	a4,0(a5) # 40000000 <__freertos_irq_stack_top+0x2fffc000>
     258:	400007b7          	lui	a5,0x40000
     25c:	0007a683          	lw	a3,0(a5) # 40000000 <__freertos_irq_stack_top+0x2fffc000>
     260:	400007b7          	lui	a5,0x40000
     264:	00100737          	lui	a4,0x100
     268:	00e6e733          	or	a4,a3,a4
     26c:	00e7a023          	sw	a4,0(a5) # 40000000 <__freertos_irq_stack_top+0x2fffc000>
     270:	400007b7          	lui	a5,0x40000
     274:	0007a683          	lw	a3,0(a5) # 40000000 <__freertos_irq_stack_top+0x2fffc000>
     278:	400007b7          	lui	a5,0x40000
     27c:	00400737          	lui	a4,0x400
     280:	00e6e733          	or	a4,a3,a4
     284:	00e7a023          	sw	a4,0(a5) # 40000000 <__freertos_irq_stack_top+0x2fffc000>
     288:	400007b7          	lui	a5,0x40000
     28c:	0007a683          	lw	a3,0(a5) # 40000000 <__freertos_irq_stack_top+0x2fffc000>
     290:	400007b7          	lui	a5,0x40000
     294:	01000737          	lui	a4,0x1000
     298:	00e6e733          	or	a4,a3,a4
     29c:	00e7a023          	sw	a4,0(a5) # 40000000 <__freertos_irq_stack_top+0x2fffc000>
     2a0:	400007b7          	lui	a5,0x40000
     2a4:	0007a683          	lw	a3,0(a5) # 40000000 <__freertos_irq_stack_top+0x2fffc000>
     2a8:	400007b7          	lui	a5,0x40000
     2ac:	04000737          	lui	a4,0x4000
     2b0:	00e6e733          	or	a4,a3,a4
     2b4:	00e7a023          	sw	a4,0(a5) # 40000000 <__freertos_irq_stack_top+0x2fffc000>
     2b8:	400007b7          	lui	a5,0x40000
     2bc:	0007a683          	lw	a3,0(a5) # 40000000 <__freertos_irq_stack_top+0x2fffc000>
     2c0:	400007b7          	lui	a5,0x40000
     2c4:	10000737          	lui	a4,0x10000
     2c8:	00e6e733          	or	a4,a3,a4
     2cc:	00e7a023          	sw	a4,0(a5) # 40000000 <__freertos_irq_stack_top+0x2fffc000>
     2d0:	400007b7          	lui	a5,0x40000
     2d4:	0007a683          	lw	a3,0(a5) # 40000000 <__freertos_irq_stack_top+0x2fffc000>
     2d8:	400007b7          	lui	a5,0x40000
     2dc:	40000737          	lui	a4,0x40000
     2e0:	00e6e733          	or	a4,a3,a4
     2e4:	00e7a023          	sw	a4,0(a5) # 40000000 <__freertos_irq_stack_top+0x2fffc000>
     2e8:	400007b7          	lui	a5,0x40000
     2ec:	00478793          	addi	a5,a5,4 # 40000004 <__freertos_irq_stack_top+0x2fffc004>
     2f0:	0007a703          	lw	a4,0(a5)
     2f4:	400007b7          	lui	a5,0x40000
     2f8:	00478793          	addi	a5,a5,4 # 40000004 <__freertos_irq_stack_top+0x2fffc004>
     2fc:	ffb77713          	andi	a4,a4,-5
     300:	00e7a023          	sw	a4,0(a5)
     304:	400007b7          	lui	a5,0x40000
     308:	00478793          	addi	a5,a5,4 # 40000004 <__freertos_irq_stack_top+0x2fffc004>
     30c:	0007a683          	lw	a3,0(a5)
     310:	400007b7          	lui	a5,0x40000
     314:	00478793          	addi	a5,a5,4 # 40000004 <__freertos_irq_stack_top+0x2fffc004>
     318:	00002737          	lui	a4,0x2
     31c:	00e6e733          	or	a4,a3,a4
     320:	00e7a023          	sw	a4,0(a5)
     324:	400007b7          	lui	a5,0x40000
     328:	00478793          	addi	a5,a5,4 # 40000004 <__freertos_irq_stack_top+0x2fffc004>
     32c:	0007a703          	lw	a4,0(a5)
     330:	400007b7          	lui	a5,0x40000
     334:	00478793          	addi	a5,a5,4 # 40000004 <__freertos_irq_stack_top+0x2fffc004>
     338:	10076713          	ori	a4,a4,256
     33c:	00e7a023          	sw	a4,0(a5)
     340:	400007b7          	lui	a5,0x40000
     344:	00478793          	addi	a5,a5,4 # 40000004 <__freertos_irq_stack_top+0x2fffc004>
     348:	0007a703          	lw	a4,0(a5)
     34c:	400007b7          	lui	a5,0x40000
     350:	00478793          	addi	a5,a5,4 # 40000004 <__freertos_irq_stack_top+0x2fffc004>
     354:	dff77713          	andi	a4,a4,-513
     358:	00e7a023          	sw	a4,0(a5)
     35c:	400007b7          	lui	a5,0x40000
     360:	00478793          	addi	a5,a5,4 # 40000004 <__freertos_irq_stack_top+0x2fffc004>
     364:	0007a703          	lw	a4,0(a5)
     368:	400007b7          	lui	a5,0x40000
     36c:	00478793          	addi	a5,a5,4 # 40000004 <__freertos_irq_stack_top+0x2fffc004>
     370:	40076713          	ori	a4,a4,1024
     374:	00e7a023          	sw	a4,0(a5)
     378:	400007b7          	lui	a5,0x40000
     37c:	00478793          	addi	a5,a5,4 # 40000004 <__freertos_irq_stack_top+0x2fffc004>
     380:	0007a683          	lw	a3,0(a5)
     384:	400007b7          	lui	a5,0x40000
     388:	00478793          	addi	a5,a5,4 # 40000004 <__freertos_irq_stack_top+0x2fffc004>
     38c:	fffff737          	lui	a4,0xfffff
     390:	7ff70713          	addi	a4,a4,2047 # fffff7ff <__freertos_irq_stack_top+0xefffb7ff>
     394:	00e6f733          	and	a4,a3,a4
     398:	00e7a023          	sw	a4,0(a5)
     39c:	00000013          	nop
     3a0:	00c12403          	lw	s0,12(sp)
     3a4:	01010113          	addi	sp,sp,16
     3a8:	00008067          	ret

000003ac <lcd_write>:
     3ac:	fe010113          	addi	sp,sp,-32
     3b0:	00112e23          	sw	ra,28(sp)
     3b4:	00812c23          	sw	s0,24(sp)
     3b8:	02010413          	addi	s0,sp,32
     3bc:	00050793          	mv	a5,a0
     3c0:	fef407a3          	sb	a5,-17(s0)
     3c4:	fef44783          	lbu	a5,-17(s0)
     3c8:	00078513          	mv	a0,a5
     3cc:	090030ef          	jal	ra,345c <spi_write_byte>
     3d0:	00000013          	nop
     3d4:	01c12083          	lw	ra,28(sp)
     3d8:	01812403          	lw	s0,24(sp)
     3dc:	02010113          	addi	sp,sp,32
     3e0:	00008067          	ret

000003e4 <lcd_reset>:
     3e4:	ff010113          	addi	sp,sp,-16
     3e8:	00112623          	sw	ra,12(sp)
     3ec:	00812423          	sw	s0,8(sp)
     3f0:	01010413          	addi	s0,sp,16
     3f4:	400007b7          	lui	a5,0x40000
     3f8:	00478793          	addi	a5,a5,4 # 40000004 <__freertos_irq_stack_top+0x2fffc004>
     3fc:	0007a703          	lw	a4,0(a5)
     400:	400007b7          	lui	a5,0x40000
     404:	00478793          	addi	a5,a5,4 # 40000004 <__freertos_irq_stack_top+0x2fffc004>
     408:	ffd77713          	andi	a4,a4,-3
     40c:	00e7a023          	sw	a4,0(a5)
     410:	000187b7          	lui	a5,0x18
     414:	6a078513          	addi	a0,a5,1696 # 186a0 <_data_lma+0x15108>
     418:	0f1020ef          	jal	ra,2d08 <busy_wait>
     41c:	400007b7          	lui	a5,0x40000
     420:	00478793          	addi	a5,a5,4 # 40000004 <__freertos_irq_stack_top+0x2fffc004>
     424:	0007a703          	lw	a4,0(a5)
     428:	400007b7          	lui	a5,0x40000
     42c:	00478793          	addi	a5,a5,4 # 40000004 <__freertos_irq_stack_top+0x2fffc004>
     430:	00276713          	ori	a4,a4,2
     434:	00e7a023          	sw	a4,0(a5)
     438:	000187b7          	lui	a5,0x18
     43c:	6a078513          	addi	a0,a5,1696 # 186a0 <_data_lma+0x15108>
     440:	0c9020ef          	jal	ra,2d08 <busy_wait>
     444:	00000013          	nop
     448:	00c12083          	lw	ra,12(sp)
     44c:	00812403          	lw	s0,8(sp)
     450:	01010113          	addi	sp,sp,16
     454:	00008067          	ret

00000458 <lcd_write_command>:
     458:	fe010113          	addi	sp,sp,-32
     45c:	00112e23          	sw	ra,28(sp)
     460:	00812c23          	sw	s0,24(sp)
     464:	02010413          	addi	s0,sp,32
     468:	00050793          	mv	a5,a0
     46c:	fef407a3          	sb	a5,-17(s0)
     470:	400007b7          	lui	a5,0x40000
     474:	00478793          	addi	a5,a5,4 # 40000004 <__freertos_irq_stack_top+0x2fffc004>
     478:	0007a703          	lw	a4,0(a5)
     47c:	400007b7          	lui	a5,0x40000
     480:	00478793          	addi	a5,a5,4 # 40000004 <__freertos_irq_stack_top+0x2fffc004>
     484:	ffe77713          	andi	a4,a4,-2
     488:	00e7a023          	sw	a4,0(a5)
     48c:	fef44783          	lbu	a5,-17(s0)
     490:	00078513          	mv	a0,a5
     494:	f19ff0ef          	jal	ra,3ac <lcd_write>
     498:	00000013          	nop
     49c:	01c12083          	lw	ra,28(sp)
     4a0:	01812403          	lw	s0,24(sp)
     4a4:	02010113          	addi	sp,sp,32
     4a8:	00008067          	ret

000004ac <lcd_write_data>:
     4ac:	fe010113          	addi	sp,sp,-32
     4b0:	00112e23          	sw	ra,28(sp)
     4b4:	00812c23          	sw	s0,24(sp)
     4b8:	02010413          	addi	s0,sp,32
     4bc:	00050793          	mv	a5,a0
     4c0:	fef407a3          	sb	a5,-17(s0)
     4c4:	400007b7          	lui	a5,0x40000
     4c8:	00478793          	addi	a5,a5,4 # 40000004 <__freertos_irq_stack_top+0x2fffc004>
     4cc:	0007a703          	lw	a4,0(a5)
     4d0:	400007b7          	lui	a5,0x40000
     4d4:	00478793          	addi	a5,a5,4 # 40000004 <__freertos_irq_stack_top+0x2fffc004>
     4d8:	00176713          	ori	a4,a4,1
     4dc:	00e7a023          	sw	a4,0(a5)
     4e0:	fef44783          	lbu	a5,-17(s0)
     4e4:	00078513          	mv	a0,a5
     4e8:	ec5ff0ef          	jal	ra,3ac <lcd_write>
     4ec:	00000013          	nop
     4f0:	01c12083          	lw	ra,28(sp)
     4f4:	01812403          	lw	s0,24(sp)
     4f8:	02010113          	addi	sp,sp,32
     4fc:	00008067          	ret

00000500 <lcd_configure>:
     500:	ff010113          	addi	sp,sp,-16
     504:	00112623          	sw	ra,12(sp)
     508:	00812423          	sw	s0,8(sp)
     50c:	01010413          	addi	s0,sp,16
     510:	3e800513          	li	a0,1000
     514:	7f4020ef          	jal	ra,2d08 <busy_wait>
     518:	0cf00513          	li	a0,207
     51c:	f3dff0ef          	jal	ra,458 <lcd_write_command>
     520:	00000513          	li	a0,0
     524:	f89ff0ef          	jal	ra,4ac <lcd_write_data>
     528:	0c100513          	li	a0,193
     52c:	f81ff0ef          	jal	ra,4ac <lcd_write_data>
     530:	03000513          	li	a0,48
     534:	f79ff0ef          	jal	ra,4ac <lcd_write_data>
     538:	3e800513          	li	a0,1000
     53c:	7cc020ef          	jal	ra,2d08 <busy_wait>
     540:	0ed00513          	li	a0,237
     544:	f15ff0ef          	jal	ra,458 <lcd_write_command>
     548:	06400513          	li	a0,100
     54c:	f61ff0ef          	jal	ra,4ac <lcd_write_data>
     550:	00300513          	li	a0,3
     554:	f59ff0ef          	jal	ra,4ac <lcd_write_data>
     558:	01200513          	li	a0,18
     55c:	f51ff0ef          	jal	ra,4ac <lcd_write_data>
     560:	08100513          	li	a0,129
     564:	f49ff0ef          	jal	ra,4ac <lcd_write_data>
     568:	3e800513          	li	a0,1000
     56c:	79c020ef          	jal	ra,2d08 <busy_wait>
     570:	0e800513          	li	a0,232
     574:	ee5ff0ef          	jal	ra,458 <lcd_write_command>
     578:	08500513          	li	a0,133
     57c:	f31ff0ef          	jal	ra,4ac <lcd_write_data>
     580:	01000513          	li	a0,16
     584:	f29ff0ef          	jal	ra,4ac <lcd_write_data>
     588:	07a00513          	li	a0,122
     58c:	f21ff0ef          	jal	ra,4ac <lcd_write_data>
     590:	3e800513          	li	a0,1000
     594:	774020ef          	jal	ra,2d08 <busy_wait>
     598:	0cb00513          	li	a0,203
     59c:	ebdff0ef          	jal	ra,458 <lcd_write_command>
     5a0:	03900513          	li	a0,57
     5a4:	f09ff0ef          	jal	ra,4ac <lcd_write_data>
     5a8:	02c00513          	li	a0,44
     5ac:	f01ff0ef          	jal	ra,4ac <lcd_write_data>
     5b0:	00000513          	li	a0,0
     5b4:	ef9ff0ef          	jal	ra,4ac <lcd_write_data>
     5b8:	03400513          	li	a0,52
     5bc:	ef1ff0ef          	jal	ra,4ac <lcd_write_data>
     5c0:	00200513          	li	a0,2
     5c4:	ee9ff0ef          	jal	ra,4ac <lcd_write_data>
     5c8:	3e800513          	li	a0,1000
     5cc:	73c020ef          	jal	ra,2d08 <busy_wait>
     5d0:	0f700513          	li	a0,247
     5d4:	e85ff0ef          	jal	ra,458 <lcd_write_command>
     5d8:	02000513          	li	a0,32
     5dc:	ed1ff0ef          	jal	ra,4ac <lcd_write_data>
     5e0:	3e800513          	li	a0,1000
     5e4:	724020ef          	jal	ra,2d08 <busy_wait>
     5e8:	0ea00513          	li	a0,234
     5ec:	e6dff0ef          	jal	ra,458 <lcd_write_command>
     5f0:	00000513          	li	a0,0
     5f4:	eb9ff0ef          	jal	ra,4ac <lcd_write_data>
     5f8:	00000513          	li	a0,0
     5fc:	eb1ff0ef          	jal	ra,4ac <lcd_write_data>
     600:	3e800513          	li	a0,1000
     604:	704020ef          	jal	ra,2d08 <busy_wait>
     608:	0c000513          	li	a0,192
     60c:	e4dff0ef          	jal	ra,458 <lcd_write_command>
     610:	01b00513          	li	a0,27
     614:	e99ff0ef          	jal	ra,4ac <lcd_write_data>
     618:	3e800513          	li	a0,1000
     61c:	6ec020ef          	jal	ra,2d08 <busy_wait>
     620:	0c100513          	li	a0,193
     624:	e35ff0ef          	jal	ra,458 <lcd_write_command>
     628:	00100513          	li	a0,1
     62c:	e81ff0ef          	jal	ra,4ac <lcd_write_data>
     630:	3e800513          	li	a0,1000
     634:	6d4020ef          	jal	ra,2d08 <busy_wait>
     638:	0c500513          	li	a0,197
     63c:	e1dff0ef          	jal	ra,458 <lcd_write_command>
     640:	03000513          	li	a0,48
     644:	e69ff0ef          	jal	ra,4ac <lcd_write_data>
     648:	03000513          	li	a0,48
     64c:	e61ff0ef          	jal	ra,4ac <lcd_write_data>
     650:	3e800513          	li	a0,1000
     654:	6b4020ef          	jal	ra,2d08 <busy_wait>
     658:	0c700513          	li	a0,199
     65c:	dfdff0ef          	jal	ra,458 <lcd_write_command>
     660:	0b700513          	li	a0,183
     664:	e49ff0ef          	jal	ra,4ac <lcd_write_data>
     668:	3e800513          	li	a0,1000
     66c:	69c020ef          	jal	ra,2d08 <busy_wait>
     670:	03600513          	li	a0,54
     674:	de5ff0ef          	jal	ra,458 <lcd_write_command>
     678:	04800513          	li	a0,72
     67c:	e31ff0ef          	jal	ra,4ac <lcd_write_data>
     680:	3e800513          	li	a0,1000
     684:	684020ef          	jal	ra,2d08 <busy_wait>
     688:	03a00513          	li	a0,58
     68c:	dcdff0ef          	jal	ra,458 <lcd_write_command>
     690:	05500513          	li	a0,85
     694:	e19ff0ef          	jal	ra,4ac <lcd_write_data>
     698:	3e800513          	li	a0,1000
     69c:	66c020ef          	jal	ra,2d08 <busy_wait>
     6a0:	0b100513          	li	a0,177
     6a4:	db5ff0ef          	jal	ra,458 <lcd_write_command>
     6a8:	00000513          	li	a0,0
     6ac:	e01ff0ef          	jal	ra,4ac <lcd_write_data>
     6b0:	01a00513          	li	a0,26
     6b4:	df9ff0ef          	jal	ra,4ac <lcd_write_data>
     6b8:	3e800513          	li	a0,1000
     6bc:	64c020ef          	jal	ra,2d08 <busy_wait>
     6c0:	0b600513          	li	a0,182
     6c4:	d95ff0ef          	jal	ra,458 <lcd_write_command>
     6c8:	00a00513          	li	a0,10
     6cc:	de1ff0ef          	jal	ra,4ac <lcd_write_data>
     6d0:	0a200513          	li	a0,162
     6d4:	dd9ff0ef          	jal	ra,4ac <lcd_write_data>
     6d8:	3e800513          	li	a0,1000
     6dc:	62c020ef          	jal	ra,2d08 <busy_wait>
     6e0:	0f200513          	li	a0,242
     6e4:	d75ff0ef          	jal	ra,458 <lcd_write_command>
     6e8:	00000513          	li	a0,0
     6ec:	dc1ff0ef          	jal	ra,4ac <lcd_write_data>
     6f0:	3e800513          	li	a0,1000
     6f4:	614020ef          	jal	ra,2d08 <busy_wait>
     6f8:	02600513          	li	a0,38
     6fc:	d5dff0ef          	jal	ra,458 <lcd_write_command>
     700:	00100513          	li	a0,1
     704:	da9ff0ef          	jal	ra,4ac <lcd_write_data>
     708:	3e800513          	li	a0,1000
     70c:	5fc020ef          	jal	ra,2d08 <busy_wait>
     710:	0e000513          	li	a0,224
     714:	d45ff0ef          	jal	ra,458 <lcd_write_command>
     718:	00f00513          	li	a0,15
     71c:	d91ff0ef          	jal	ra,4ac <lcd_write_data>
     720:	02a00513          	li	a0,42
     724:	d89ff0ef          	jal	ra,4ac <lcd_write_data>
     728:	02800513          	li	a0,40
     72c:	d81ff0ef          	jal	ra,4ac <lcd_write_data>
     730:	00800513          	li	a0,8
     734:	d79ff0ef          	jal	ra,4ac <lcd_write_data>
     738:	00e00513          	li	a0,14
     73c:	d71ff0ef          	jal	ra,4ac <lcd_write_data>
     740:	00800513          	li	a0,8
     744:	d69ff0ef          	jal	ra,4ac <lcd_write_data>
     748:	05400513          	li	a0,84
     74c:	d61ff0ef          	jal	ra,4ac <lcd_write_data>
     750:	0a900513          	li	a0,169
     754:	d59ff0ef          	jal	ra,4ac <lcd_write_data>
     758:	04300513          	li	a0,67
     75c:	d51ff0ef          	jal	ra,4ac <lcd_write_data>
     760:	00a00513          	li	a0,10
     764:	d49ff0ef          	jal	ra,4ac <lcd_write_data>
     768:	00f00513          	li	a0,15
     76c:	d41ff0ef          	jal	ra,4ac <lcd_write_data>
     770:	00000513          	li	a0,0
     774:	d39ff0ef          	jal	ra,4ac <lcd_write_data>
     778:	00000513          	li	a0,0
     77c:	d31ff0ef          	jal	ra,4ac <lcd_write_data>
     780:	00000513          	li	a0,0
     784:	d29ff0ef          	jal	ra,4ac <lcd_write_data>
     788:	00000513          	li	a0,0
     78c:	d21ff0ef          	jal	ra,4ac <lcd_write_data>
     790:	3e800513          	li	a0,1000
     794:	574020ef          	jal	ra,2d08 <busy_wait>
     798:	0e100513          	li	a0,225
     79c:	cbdff0ef          	jal	ra,458 <lcd_write_command>
     7a0:	00000513          	li	a0,0
     7a4:	d09ff0ef          	jal	ra,4ac <lcd_write_data>
     7a8:	01500513          	li	a0,21
     7ac:	d01ff0ef          	jal	ra,4ac <lcd_write_data>
     7b0:	01700513          	li	a0,23
     7b4:	cf9ff0ef          	jal	ra,4ac <lcd_write_data>
     7b8:	00700513          	li	a0,7
     7bc:	cf1ff0ef          	jal	ra,4ac <lcd_write_data>
     7c0:	01100513          	li	a0,17
     7c4:	ce9ff0ef          	jal	ra,4ac <lcd_write_data>
     7c8:	00600513          	li	a0,6
     7cc:	ce1ff0ef          	jal	ra,4ac <lcd_write_data>
     7d0:	02b00513          	li	a0,43
     7d4:	cd9ff0ef          	jal	ra,4ac <lcd_write_data>
     7d8:	05600513          	li	a0,86
     7dc:	cd1ff0ef          	jal	ra,4ac <lcd_write_data>
     7e0:	03c00513          	li	a0,60
     7e4:	cc9ff0ef          	jal	ra,4ac <lcd_write_data>
     7e8:	00500513          	li	a0,5
     7ec:	cc1ff0ef          	jal	ra,4ac <lcd_write_data>
     7f0:	01000513          	li	a0,16
     7f4:	cb9ff0ef          	jal	ra,4ac <lcd_write_data>
     7f8:	00f00513          	li	a0,15
     7fc:	cb1ff0ef          	jal	ra,4ac <lcd_write_data>
     800:	03f00513          	li	a0,63
     804:	ca9ff0ef          	jal	ra,4ac <lcd_write_data>
     808:	03f00513          	li	a0,63
     80c:	ca1ff0ef          	jal	ra,4ac <lcd_write_data>
     810:	00f00513          	li	a0,15
     814:	c99ff0ef          	jal	ra,4ac <lcd_write_data>
     818:	3e800513          	li	a0,1000
     81c:	4ec020ef          	jal	ra,2d08 <busy_wait>
     820:	02b00513          	li	a0,43
     824:	c35ff0ef          	jal	ra,458 <lcd_write_command>
     828:	00000513          	li	a0,0
     82c:	c81ff0ef          	jal	ra,4ac <lcd_write_data>
     830:	00000513          	li	a0,0
     834:	c79ff0ef          	jal	ra,4ac <lcd_write_data>
     838:	00100513          	li	a0,1
     83c:	c71ff0ef          	jal	ra,4ac <lcd_write_data>
     840:	03f00513          	li	a0,63
     844:	c69ff0ef          	jal	ra,4ac <lcd_write_data>
     848:	3e800513          	li	a0,1000
     84c:	4bc020ef          	jal	ra,2d08 <busy_wait>
     850:	02a00513          	li	a0,42
     854:	c05ff0ef          	jal	ra,458 <lcd_write_command>
     858:	00000513          	li	a0,0
     85c:	c51ff0ef          	jal	ra,4ac <lcd_write_data>
     860:	00000513          	li	a0,0
     864:	c49ff0ef          	jal	ra,4ac <lcd_write_data>
     868:	00000513          	li	a0,0
     86c:	c41ff0ef          	jal	ra,4ac <lcd_write_data>
     870:	0ef00513          	li	a0,239
     874:	c39ff0ef          	jal	ra,4ac <lcd_write_data>
     878:	3e800513          	li	a0,1000
     87c:	48c020ef          	jal	ra,2d08 <busy_wait>
     880:	01100513          	li	a0,17
     884:	bd5ff0ef          	jal	ra,458 <lcd_write_command>
     888:	000497b7          	lui	a5,0x49
     88c:	3e078513          	addi	a0,a5,992 # 493e0 <_data_lma+0x45e48>
     890:	478020ef          	jal	ra,2d08 <busy_wait>
     894:	02900513          	li	a0,41
     898:	bc1ff0ef          	jal	ra,458 <lcd_write_command>
     89c:	00000013          	nop
     8a0:	00c12083          	lw	ra,12(sp)
     8a4:	00812403          	lw	s0,8(sp)
     8a8:	01010113          	addi	sp,sp,16
     8ac:	00008067          	ret

000008b0 <lcd_set_windows>:
     8b0:	fe010113          	addi	sp,sp,-32
     8b4:	00112e23          	sw	ra,28(sp)
     8b8:	00812c23          	sw	s0,24(sp)
     8bc:	02010413          	addi	s0,sp,32
     8c0:	00050793          	mv	a5,a0
     8c4:	00068713          	mv	a4,a3
     8c8:	fef41723          	sh	a5,-18(s0)
     8cc:	00058793          	mv	a5,a1
     8d0:	fef41623          	sh	a5,-20(s0)
     8d4:	00060793          	mv	a5,a2
     8d8:	fef41523          	sh	a5,-22(s0)
     8dc:	00070793          	mv	a5,a4
     8e0:	fef41423          	sh	a5,-24(s0)
     8e4:	02a00513          	li	a0,42
     8e8:	b71ff0ef          	jal	ra,458 <lcd_write_command>
     8ec:	fee45783          	lhu	a5,-18(s0)
     8f0:	0087d793          	srli	a5,a5,0x8
     8f4:	01079793          	slli	a5,a5,0x10
     8f8:	0107d793          	srli	a5,a5,0x10
     8fc:	0ff7f793          	andi	a5,a5,255
     900:	00078513          	mv	a0,a5
     904:	ba9ff0ef          	jal	ra,4ac <lcd_write_data>
     908:	fee45783          	lhu	a5,-18(s0)
     90c:	0ff7f793          	andi	a5,a5,255
     910:	00078513          	mv	a0,a5
     914:	b99ff0ef          	jal	ra,4ac <lcd_write_data>
     918:	fea45783          	lhu	a5,-22(s0)
     91c:	0087d793          	srli	a5,a5,0x8
     920:	01079793          	slli	a5,a5,0x10
     924:	0107d793          	srli	a5,a5,0x10
     928:	0ff7f793          	andi	a5,a5,255
     92c:	00078513          	mv	a0,a5
     930:	b7dff0ef          	jal	ra,4ac <lcd_write_data>
     934:	fea45783          	lhu	a5,-22(s0)
     938:	0ff7f793          	andi	a5,a5,255
     93c:	00078513          	mv	a0,a5
     940:	b6dff0ef          	jal	ra,4ac <lcd_write_data>
     944:	02b00513          	li	a0,43
     948:	b11ff0ef          	jal	ra,458 <lcd_write_command>
     94c:	fec45783          	lhu	a5,-20(s0)
     950:	0087d793          	srli	a5,a5,0x8
     954:	01079793          	slli	a5,a5,0x10
     958:	0107d793          	srli	a5,a5,0x10
     95c:	0ff7f793          	andi	a5,a5,255
     960:	00078513          	mv	a0,a5
     964:	b49ff0ef          	jal	ra,4ac <lcd_write_data>
     968:	fec45783          	lhu	a5,-20(s0)
     96c:	0ff7f793          	andi	a5,a5,255
     970:	00078513          	mv	a0,a5
     974:	b39ff0ef          	jal	ra,4ac <lcd_write_data>
     978:	fe845783          	lhu	a5,-24(s0)
     97c:	0087d793          	srli	a5,a5,0x8
     980:	01079793          	slli	a5,a5,0x10
     984:	0107d793          	srli	a5,a5,0x10
     988:	0ff7f793          	andi	a5,a5,255
     98c:	00078513          	mv	a0,a5
     990:	b1dff0ef          	jal	ra,4ac <lcd_write_data>
     994:	fe845783          	lhu	a5,-24(s0)
     998:	0ff7f793          	andi	a5,a5,255
     99c:	00078513          	mv	a0,a5
     9a0:	b0dff0ef          	jal	ra,4ac <lcd_write_data>
     9a4:	02c00513          	li	a0,44
     9a8:	ab1ff0ef          	jal	ra,458 <lcd_write_command>
     9ac:	00000013          	nop
     9b0:	01c12083          	lw	ra,28(sp)
     9b4:	01812403          	lw	s0,24(sp)
     9b8:	02010113          	addi	sp,sp,32
     9bc:	00008067          	ret

000009c0 <lcd_write_gram>:
     9c0:	fe010113          	addi	sp,sp,-32
     9c4:	00112e23          	sw	ra,28(sp)
     9c8:	00812c23          	sw	s0,24(sp)
     9cc:	02010413          	addi	s0,sp,32
     9d0:	00050793          	mv	a5,a0
     9d4:	fef41723          	sh	a5,-18(s0)
     9d8:	fee45783          	lhu	a5,-18(s0)
     9dc:	0087d793          	srli	a5,a5,0x8
     9e0:	01079793          	slli	a5,a5,0x10
     9e4:	0107d793          	srli	a5,a5,0x10
     9e8:	0ff7f793          	andi	a5,a5,255
     9ec:	00078513          	mv	a0,a5
     9f0:	abdff0ef          	jal	ra,4ac <lcd_write_data>
     9f4:	fee45783          	lhu	a5,-18(s0)
     9f8:	0ff7f793          	andi	a5,a5,255
     9fc:	00078513          	mv	a0,a5
     a00:	aadff0ef          	jal	ra,4ac <lcd_write_data>
     a04:	00000013          	nop
     a08:	01c12083          	lw	ra,28(sp)
     a0c:	01812403          	lw	s0,24(sp)
     a10:	02010113          	addi	sp,sp,32
     a14:	00008067          	ret

00000a18 <lcd_init>:
     a18:	ff010113          	addi	sp,sp,-16
     a1c:	00112623          	sw	ra,12(sp)
     a20:	00812423          	sw	s0,8(sp)
     a24:	01010413          	addi	s0,sp,16
     a28:	9bdff0ef          	jal	ra,3e4 <lcd_reset>
     a2c:	ad5ff0ef          	jal	ra,500 <lcd_configure>
     a30:	00000013          	nop
     a34:	00c12083          	lw	ra,12(sp)
     a38:	00812403          	lw	s0,8(sp)
     a3c:	01010113          	addi	sp,sp,16
     a40:	00008067          	ret

00000a44 <lcd_clear>:
     a44:	fd010113          	addi	sp,sp,-48
     a48:	02112623          	sw	ra,44(sp)
     a4c:	02812423          	sw	s0,40(sp)
     a50:	03010413          	addi	s0,sp,48
     a54:	00050793          	mv	a5,a0
     a58:	fcf41f23          	sh	a5,-34(s0)
     a5c:	13f00693          	li	a3,319
     a60:	0ef00613          	li	a2,239
     a64:	00000593          	li	a1,0
     a68:	00000513          	li	a0,0
     a6c:	e45ff0ef          	jal	ra,8b0 <lcd_set_windows>
     a70:	fe042623          	sw	zero,-20(s0)
     a74:	03c0006f          	j	ab0 <lcd_clear+0x6c>
     a78:	fe042423          	sw	zero,-24(s0)
     a7c:	01c0006f          	j	a98 <lcd_clear+0x54>
     a80:	fde45783          	lhu	a5,-34(s0)
     a84:	00078513          	mv	a0,a5
     a88:	f39ff0ef          	jal	ra,9c0 <lcd_write_gram>
     a8c:	fe842783          	lw	a5,-24(s0)
     a90:	00178793          	addi	a5,a5,1
     a94:	fef42423          	sw	a5,-24(s0)
     a98:	fe842703          	lw	a4,-24(s0)
     a9c:	13f00793          	li	a5,319
     aa0:	fee7d0e3          	bge	a5,a4,a80 <lcd_clear+0x3c>
     aa4:	fec42783          	lw	a5,-20(s0)
     aa8:	00178793          	addi	a5,a5,1
     aac:	fef42623          	sw	a5,-20(s0)
     ab0:	fec42703          	lw	a4,-20(s0)
     ab4:	0ef00793          	li	a5,239
     ab8:	fce7d0e3          	bge	a5,a4,a78 <lcd_clear+0x34>
     abc:	00000013          	nop
     ac0:	02c12083          	lw	ra,44(sp)
     ac4:	02812403          	lw	s0,40(sp)
     ac8:	03010113          	addi	sp,sp,48
     acc:	00008067          	ret

00000ad0 <lcd_draw_rect>:
     ad0:	fd010113          	addi	sp,sp,-48
     ad4:	02112623          	sw	ra,44(sp)
     ad8:	02812423          	sw	s0,40(sp)
     adc:	03010413          	addi	s0,sp,48
     ae0:	00050793          	mv	a5,a0
     ae4:	fcf41f23          	sh	a5,-34(s0)
     ae8:	00058793          	mv	a5,a1
     aec:	fcf41e23          	sh	a5,-36(s0)
     af0:	00060793          	mv	a5,a2
     af4:	fcf41d23          	sh	a5,-38(s0)
     af8:	00068793          	mv	a5,a3
     afc:	fcf41c23          	sh	a5,-40(s0)
     b00:	00070793          	mv	a5,a4
     b04:	fcf41b23          	sh	a5,-42(s0)
     b08:	fdc45783          	lhu	a5,-36(s0)
     b0c:	fef403a3          	sb	a5,-25(s0)
     b10:	fde45703          	lhu	a4,-34(s0)
     b14:	fda45783          	lhu	a5,-38(s0)
     b18:	00f707b3          	add	a5,a4,a5
     b1c:	01079793          	slli	a5,a5,0x10
     b20:	0107d793          	srli	a5,a5,0x10
     b24:	14000713          	li	a4,320
     b28:	40f707b3          	sub	a5,a4,a5
     b2c:	fcf41e23          	sh	a5,-36(s0)
     b30:	fe744783          	lbu	a5,-25(s0)
     b34:	fcf41f23          	sh	a5,-34(s0)
     b38:	fde45703          	lhu	a4,-34(s0)
     b3c:	fd845783          	lhu	a5,-40(s0)
     b40:	00f707b3          	add	a5,a4,a5
     b44:	01079793          	slli	a5,a5,0x10
     b48:	0107d793          	srli	a5,a5,0x10
     b4c:	fff78793          	addi	a5,a5,-1
     b50:	01079613          	slli	a2,a5,0x10
     b54:	01065613          	srli	a2,a2,0x10
     b58:	fdc45703          	lhu	a4,-36(s0)
     b5c:	fda45783          	lhu	a5,-38(s0)
     b60:	00f707b3          	add	a5,a4,a5
     b64:	01079793          	slli	a5,a5,0x10
     b68:	0107d793          	srli	a5,a5,0x10
     b6c:	fff78793          	addi	a5,a5,-1
     b70:	01079693          	slli	a3,a5,0x10
     b74:	0106d693          	srli	a3,a3,0x10
     b78:	fdc45703          	lhu	a4,-36(s0)
     b7c:	fde45783          	lhu	a5,-34(s0)
     b80:	00070593          	mv	a1,a4
     b84:	00078513          	mv	a0,a5
     b88:	d29ff0ef          	jal	ra,8b0 <lcd_set_windows>
     b8c:	fe042623          	sw	zero,-20(s0)
     b90:	03c0006f          	j	bcc <lcd_draw_rect+0xfc>
     b94:	fe042423          	sw	zero,-24(s0)
     b98:	01c0006f          	j	bb4 <lcd_draw_rect+0xe4>
     b9c:	fd645783          	lhu	a5,-42(s0)
     ba0:	00078513          	mv	a0,a5
     ba4:	e1dff0ef          	jal	ra,9c0 <lcd_write_gram>
     ba8:	fe842783          	lw	a5,-24(s0)
     bac:	00178793          	addi	a5,a5,1
     bb0:	fef42423          	sw	a5,-24(s0)
     bb4:	fd845783          	lhu	a5,-40(s0)
     bb8:	fe842703          	lw	a4,-24(s0)
     bbc:	fef740e3          	blt	a4,a5,b9c <lcd_draw_rect+0xcc>
     bc0:	fec42783          	lw	a5,-20(s0)
     bc4:	00178793          	addi	a5,a5,1
     bc8:	fef42623          	sw	a5,-20(s0)
     bcc:	fda45783          	lhu	a5,-38(s0)
     bd0:	fec42703          	lw	a4,-20(s0)
     bd4:	fcf740e3          	blt	a4,a5,b94 <lcd_draw_rect+0xc4>
     bd8:	00000013          	nop
     bdc:	02c12083          	lw	ra,44(sp)
     be0:	02812403          	lw	s0,40(sp)
     be4:	03010113          	addi	sp,sp,48
     be8:	00008067          	ret

00000bec <lcd_draw_char>:
     bec:	fd010113          	addi	sp,sp,-48
     bf0:	02112623          	sw	ra,44(sp)
     bf4:	02812423          	sw	s0,40(sp)
     bf8:	03010413          	addi	s0,sp,48
     bfc:	00050793          	mv	a5,a0
     c00:	fcf41f23          	sh	a5,-34(s0)
     c04:	00058793          	mv	a5,a1
     c08:	fcf41e23          	sh	a5,-36(s0)
     c0c:	00060793          	mv	a5,a2
     c10:	fcf40da3          	sb	a5,-37(s0)
     c14:	00068793          	mv	a5,a3
     c18:	fcf41c23          	sh	a5,-40(s0)
     c1c:	00070793          	mv	a5,a4
     c20:	fcf40d23          	sb	a5,-38(s0)
     c24:	fdb44783          	lbu	a5,-37(s0)
     c28:	fbf78793          	addi	a5,a5,-65
     c2c:	01500713          	li	a4,21
     c30:	22f76c63          	bltu	a4,a5,e68 <lcd_draw_char+0x27c>
     c34:	00279713          	slli	a4,a5,0x2
     c38:	100007b7          	lui	a5,0x10000
     c3c:	44078793          	addi	a5,a5,1088 # 10000440 <_data+0x440>
     c40:	00f707b3          	add	a5,a4,a5
     c44:	0007a783          	lw	a5,0(a5)
     c48:	00078067          	jr	a5
     c4c:	fc040da3          	sb	zero,-37(s0)
     c50:	0c40006f          	j	d14 <lcd_draw_char+0x128>
     c54:	00100793          	li	a5,1
     c58:	fcf40da3          	sb	a5,-37(s0)
     c5c:	0b80006f          	j	d14 <lcd_draw_char+0x128>
     c60:	00200793          	li	a5,2
     c64:	fcf40da3          	sb	a5,-37(s0)
     c68:	0ac0006f          	j	d14 <lcd_draw_char+0x128>
     c6c:	00300793          	li	a5,3
     c70:	fcf40da3          	sb	a5,-37(s0)
     c74:	0a00006f          	j	d14 <lcd_draw_char+0x128>
     c78:	00400793          	li	a5,4
     c7c:	fcf40da3          	sb	a5,-37(s0)
     c80:	0940006f          	j	d14 <lcd_draw_char+0x128>
     c84:	00500793          	li	a5,5
     c88:	fcf40da3          	sb	a5,-37(s0)
     c8c:	0880006f          	j	d14 <lcd_draw_char+0x128>
     c90:	00600793          	li	a5,6
     c94:	fcf40da3          	sb	a5,-37(s0)
     c98:	07c0006f          	j	d14 <lcd_draw_char+0x128>
     c9c:	00700793          	li	a5,7
     ca0:	fcf40da3          	sb	a5,-37(s0)
     ca4:	0700006f          	j	d14 <lcd_draw_char+0x128>
     ca8:	00800793          	li	a5,8
     cac:	fcf40da3          	sb	a5,-37(s0)
     cb0:	0640006f          	j	d14 <lcd_draw_char+0x128>
     cb4:	00900793          	li	a5,9
     cb8:	fcf40da3          	sb	a5,-37(s0)
     cbc:	0580006f          	j	d14 <lcd_draw_char+0x128>
     cc0:	00a00793          	li	a5,10
     cc4:	fcf40da3          	sb	a5,-37(s0)
     cc8:	04c0006f          	j	d14 <lcd_draw_char+0x128>
     ccc:	00b00793          	li	a5,11
     cd0:	fcf40da3          	sb	a5,-37(s0)
     cd4:	0400006f          	j	d14 <lcd_draw_char+0x128>
     cd8:	00c00793          	li	a5,12
     cdc:	fcf40da3          	sb	a5,-37(s0)
     ce0:	0340006f          	j	d14 <lcd_draw_char+0x128>
     ce4:	00d00793          	li	a5,13
     ce8:	fcf40da3          	sb	a5,-37(s0)
     cec:	0280006f          	j	d14 <lcd_draw_char+0x128>
     cf0:	00e00793          	li	a5,14
     cf4:	fcf40da3          	sb	a5,-37(s0)
     cf8:	01c0006f          	j	d14 <lcd_draw_char+0x128>
     cfc:	00f00793          	li	a5,15
     d00:	fcf40da3          	sb	a5,-37(s0)
     d04:	0100006f          	j	d14 <lcd_draw_char+0x128>
     d08:	01000793          	li	a5,16
     d0c:	fcf40da3          	sb	a5,-37(s0)
     d10:	00000013          	nop
     d14:	fdb44783          	lbu	a5,-37(s0)
     d18:	00279793          	slli	a5,a5,0x2
     d1c:	00378793          	addi	a5,a5,3
     d20:	00479793          	slli	a5,a5,0x4
     d24:	00f78713          	addi	a4,a5,15
     d28:	100007b7          	lui	a5,0x10000
     d2c:	00078793          	mv	a5,a5
     d30:	00f707b3          	add	a5,a4,a5
     d34:	fef42423          	sw	a5,-24(s0)
     d38:	fe0407a3          	sb	zero,-17(s0)
     d3c:	11c0006f          	j	e58 <lcd_draw_char+0x26c>
     d40:	fe040723          	sb	zero,-18(s0)
     d44:	0fc0006f          	j	e40 <lcd_draw_char+0x254>
     d48:	fe0406a3          	sb	zero,-19(s0)
     d4c:	0d00006f          	j	e1c <lcd_draw_char+0x230>
     d50:	fe842783          	lw	a5,-24(s0)
     d54:	0007c783          	lbu	a5,0(a5) # 10000000 <_data>
     d58:	00078693          	mv	a3,a5
     d5c:	fed44783          	lbu	a5,-19(s0)
     d60:	08000713          	li	a4,128
     d64:	40f757b3          	sra	a5,a4,a5
     d68:	00f6f7b3          	and	a5,a3,a5
     d6c:	0a078263          	beqz	a5,e10 <lcd_draw_char+0x224>
     d70:	fef44783          	lbu	a5,-17(s0)
     d74:	01000713          	li	a4,16
     d78:	40f707b3          	sub	a5,a4,a5
     d7c:	01079713          	slli	a4,a5,0x10
     d80:	01075713          	srli	a4,a4,0x10
     d84:	fda44783          	lbu	a5,-38(s0)
     d88:	01079793          	slli	a5,a5,0x10
     d8c:	0107d793          	srli	a5,a5,0x10
     d90:	02f707b3          	mul	a5,a4,a5
     d94:	01079713          	slli	a4,a5,0x10
     d98:	01075713          	srli	a4,a4,0x10
     d9c:	fde45783          	lhu	a5,-34(s0)
     da0:	00f707b3          	add	a5,a4,a5
     da4:	01079513          	slli	a0,a5,0x10
     da8:	01055513          	srli	a0,a0,0x10
     dac:	fee44783          	lbu	a5,-18(s0)
     db0:	00379713          	slli	a4,a5,0x3
     db4:	fed44783          	lbu	a5,-19(s0)
     db8:	00f707b3          	add	a5,a4,a5
     dbc:	01079713          	slli	a4,a5,0x10
     dc0:	01075713          	srli	a4,a4,0x10
     dc4:	fda44783          	lbu	a5,-38(s0)
     dc8:	01079793          	slli	a5,a5,0x10
     dcc:	0107d793          	srli	a5,a5,0x10
     dd0:	02f707b3          	mul	a5,a4,a5
     dd4:	01079713          	slli	a4,a5,0x10
     dd8:	01075713          	srli	a4,a4,0x10
     ddc:	fdc45783          	lhu	a5,-36(s0)
     de0:	00f707b3          	add	a5,a4,a5
     de4:	01079793          	slli	a5,a5,0x10
     de8:	0107d793          	srli	a5,a5,0x10
     dec:	fda44703          	lbu	a4,-38(s0)
     df0:	01071613          	slli	a2,a4,0x10
     df4:	01065613          	srli	a2,a2,0x10
     df8:	fda44703          	lbu	a4,-38(s0)
     dfc:	01071693          	slli	a3,a4,0x10
     e00:	0106d693          	srli	a3,a3,0x10
     e04:	fd845703          	lhu	a4,-40(s0)
     e08:	00078593          	mv	a1,a5
     e0c:	cc5ff0ef          	jal	ra,ad0 <lcd_draw_rect>
     e10:	fed44783          	lbu	a5,-19(s0)
     e14:	00178793          	addi	a5,a5,1
     e18:	fef406a3          	sb	a5,-19(s0)
     e1c:	fed44703          	lbu	a4,-19(s0)
     e20:	00700793          	li	a5,7
     e24:	f2e7f6e3          	bgeu	a5,a4,d50 <lcd_draw_char+0x164>
     e28:	fe842783          	lw	a5,-24(s0)
     e2c:	fff78793          	addi	a5,a5,-1
     e30:	fef42423          	sw	a5,-24(s0)
     e34:	fee44783          	lbu	a5,-18(s0)
     e38:	00178793          	addi	a5,a5,1
     e3c:	fef40723          	sb	a5,-18(s0)
     e40:	fee44703          	lbu	a4,-18(s0)
     e44:	00300793          	li	a5,3
     e48:	f0e7f0e3          	bgeu	a5,a4,d48 <lcd_draw_char+0x15c>
     e4c:	fef44783          	lbu	a5,-17(s0)
     e50:	00178793          	addi	a5,a5,1
     e54:	fef407a3          	sb	a5,-17(s0)
     e58:	fef44703          	lbu	a4,-17(s0)
     e5c:	00f00793          	li	a5,15
     e60:	eee7f0e3          	bgeu	a5,a4,d40 <lcd_draw_char+0x154>
     e64:	0080006f          	j	e6c <lcd_draw_char+0x280>
     e68:	00000013          	nop
     e6c:	02c12083          	lw	ra,44(sp)
     e70:	02812403          	lw	s0,40(sp)
     e74:	03010113          	addi	sp,sp,48
     e78:	00008067          	ret

00000e7c <lcd_draw_string>:
     e7c:	fe010113          	addi	sp,sp,-32
     e80:	00112e23          	sw	ra,28(sp)
     e84:	00812c23          	sw	s0,24(sp)
     e88:	02010413          	addi	s0,sp,32
     e8c:	00050793          	mv	a5,a0
     e90:	fec42423          	sw	a2,-24(s0)
     e94:	fef41723          	sh	a5,-18(s0)
     e98:	00058793          	mv	a5,a1
     e9c:	fef41623          	sh	a5,-20(s0)
     ea0:	00068793          	mv	a5,a3
     ea4:	fef41323          	sh	a5,-26(s0)
     ea8:	00070793          	mv	a5,a4
     eac:	fef402a3          	sb	a5,-27(s0)
     eb0:	0540006f          	j	f04 <lcd_draw_string+0x88>
     eb4:	fe842783          	lw	a5,-24(s0)
     eb8:	0007c603          	lbu	a2,0(a5)
     ebc:	fe544703          	lbu	a4,-27(s0)
     ec0:	fe645683          	lhu	a3,-26(s0)
     ec4:	fec45583          	lhu	a1,-20(s0)
     ec8:	fee45783          	lhu	a5,-18(s0)
     ecc:	00078513          	mv	a0,a5
     ed0:	d1dff0ef          	jal	ra,bec <lcd_draw_char>
     ed4:	fe842783          	lw	a5,-24(s0)
     ed8:	00178793          	addi	a5,a5,1
     edc:	fef42423          	sw	a5,-24(s0)
     ee0:	fe544783          	lbu	a5,-27(s0)
     ee4:	01079793          	slli	a5,a5,0x10
     ee8:	0107d793          	srli	a5,a5,0x10
     eec:	00479793          	slli	a5,a5,0x4
     ef0:	01079713          	slli	a4,a5,0x10
     ef4:	01075713          	srli	a4,a4,0x10
     ef8:	fee45783          	lhu	a5,-18(s0)
     efc:	00f707b3          	add	a5,a4,a5
     f00:	fef41723          	sh	a5,-18(s0)
     f04:	fe842783          	lw	a5,-24(s0)
     f08:	0007c783          	lbu	a5,0(a5)
     f0c:	fa0794e3          	bnez	a5,eb4 <lcd_draw_string+0x38>
     f10:	00000013          	nop
     f14:	01c12083          	lw	ra,28(sp)
     f18:	01812403          	lw	s0,24(sp)
     f1c:	02010113          	addi	sp,sp,32
     f20:	00008067          	ret

00000f24 <led_send_0>:
     f24:	ff010113          	addi	sp,sp,-16
     f28:	00812623          	sw	s0,12(sp)
     f2c:	01010413          	addi	s0,sp,16
     f30:	400007b7          	lui	a5,0x40000
     f34:	00478793          	addi	a5,a5,4 # 40000004 <__freertos_irq_stack_top+0x2fffc004>
     f38:	0007a703          	lw	a4,0(a5)
     f3c:	400007b7          	lui	a5,0x40000
     f40:	00478793          	addi	a5,a5,4 # 40000004 <__freertos_irq_stack_top+0x2fffc004>
     f44:	00476713          	ori	a4,a4,4
     f48:	00e7a023          	sw	a4,0(a5)
     f4c:	00000013          	nop
     f50:	00000013          	nop
     f54:	00000013          	nop
     f58:	00000013          	nop
     f5c:	00000013          	nop
     f60:	400007b7          	lui	a5,0x40000
     f64:	00478793          	addi	a5,a5,4 # 40000004 <__freertos_irq_stack_top+0x2fffc004>
     f68:	0007a703          	lw	a4,0(a5)
     f6c:	400007b7          	lui	a5,0x40000
     f70:	00478793          	addi	a5,a5,4 # 40000004 <__freertos_irq_stack_top+0x2fffc004>
     f74:	ffb77713          	andi	a4,a4,-5
     f78:	00e7a023          	sw	a4,0(a5)
     f7c:	00000013          	nop
     f80:	00000013          	nop
     f84:	00000013          	nop
     f88:	00000013          	nop
     f8c:	00000013          	nop
     f90:	00000013          	nop
     f94:	00000013          	nop
     f98:	00000013          	nop
     f9c:	00000013          	nop
     fa0:	00000013          	nop
     fa4:	00000013          	nop
     fa8:	00000013          	nop
     fac:	00000013          	nop
     fb0:	00000013          	nop
     fb4:	00000013          	nop
     fb8:	00000013          	nop
     fbc:	00000013          	nop
     fc0:	00000013          	nop
     fc4:	00000013          	nop
     fc8:	00000013          	nop
     fcc:	00000013          	nop
     fd0:	00000013          	nop
     fd4:	00000013          	nop
     fd8:	00000013          	nop
     fdc:	00000013          	nop
     fe0:	00000013          	nop
     fe4:	00000013          	nop
     fe8:	00000013          	nop
     fec:	00000013          	nop
     ff0:	00000013          	nop
     ff4:	00000013          	nop
     ff8:	00c12403          	lw	s0,12(sp)
     ffc:	01010113          	addi	sp,sp,16
    1000:	00008067          	ret

00001004 <led_send_1>:
    1004:	ff010113          	addi	sp,sp,-16
    1008:	00812623          	sw	s0,12(sp)
    100c:	01010413          	addi	s0,sp,16
    1010:	400007b7          	lui	a5,0x40000
    1014:	00478793          	addi	a5,a5,4 # 40000004 <__freertos_irq_stack_top+0x2fffc004>
    1018:	0007a703          	lw	a4,0(a5)
    101c:	400007b7          	lui	a5,0x40000
    1020:	00478793          	addi	a5,a5,4 # 40000004 <__freertos_irq_stack_top+0x2fffc004>
    1024:	00476713          	ori	a4,a4,4
    1028:	00e7a023          	sw	a4,0(a5)
    102c:	00000013          	nop
    1030:	00000013          	nop
    1034:	00000013          	nop
    1038:	00000013          	nop
    103c:	00000013          	nop
    1040:	00000013          	nop
    1044:	00000013          	nop
    1048:	00000013          	nop
    104c:	00000013          	nop
    1050:	00000013          	nop
    1054:	00000013          	nop
    1058:	00000013          	nop
    105c:	00000013          	nop
    1060:	00000013          	nop
    1064:	00000013          	nop
    1068:	00000013          	nop
    106c:	00000013          	nop
    1070:	00000013          	nop
    1074:	00000013          	nop
    1078:	00000013          	nop
    107c:	00000013          	nop
    1080:	00000013          	nop
    1084:	00000013          	nop
    1088:	00000013          	nop
    108c:	00000013          	nop
    1090:	00000013          	nop
    1094:	00000013          	nop
    1098:	00000013          	nop
    109c:	00000013          	nop
    10a0:	00000013          	nop
    10a4:	400007b7          	lui	a5,0x40000
    10a8:	00478793          	addi	a5,a5,4 # 40000004 <__freertos_irq_stack_top+0x2fffc004>
    10ac:	0007a703          	lw	a4,0(a5)
    10b0:	400007b7          	lui	a5,0x40000
    10b4:	00478793          	addi	a5,a5,4 # 40000004 <__freertos_irq_stack_top+0x2fffc004>
    10b8:	ffb77713          	andi	a4,a4,-5
    10bc:	00e7a023          	sw	a4,0(a5)
    10c0:	00000013          	nop
    10c4:	00000013          	nop
    10c8:	00000013          	nop
    10cc:	00000013          	nop
    10d0:	00000013          	nop
    10d4:	00000013          	nop
    10d8:	00c12403          	lw	s0,12(sp)
    10dc:	01010113          	addi	sp,sp,16
    10e0:	00008067          	ret

000010e4 <led_send_data>:
    10e4:	fd010113          	addi	sp,sp,-48
    10e8:	02112623          	sw	ra,44(sp)
    10ec:	02812423          	sw	s0,40(sp)
    10f0:	03010413          	addi	s0,sp,48
    10f4:	00050793          	mv	a5,a0
    10f8:	fcf40fa3          	sb	a5,-33(s0)
    10fc:	fe042623          	sw	zero,-20(s0)
    1100:	0300006f          	j	1130 <led_send_data+0x4c>
    1104:	fdf40783          	lb	a5,-33(s0)
    1108:	0007d663          	bgez	a5,1114 <led_send_data+0x30>
    110c:	ef9ff0ef          	jal	ra,1004 <led_send_1>
    1110:	0080006f          	j	1118 <led_send_data+0x34>
    1114:	e11ff0ef          	jal	ra,f24 <led_send_0>
    1118:	fdf44783          	lbu	a5,-33(s0)
    111c:	00179793          	slli	a5,a5,0x1
    1120:	fcf40fa3          	sb	a5,-33(s0)
    1124:	fec42783          	lw	a5,-20(s0)
    1128:	00178793          	addi	a5,a5,1
    112c:	fef42623          	sw	a5,-20(s0)
    1130:	fec42703          	lw	a4,-20(s0)
    1134:	00700793          	li	a5,7
    1138:	fce7d6e3          	bge	a5,a4,1104 <led_send_data+0x20>
    113c:	00000013          	nop
    1140:	02c12083          	lw	ra,44(sp)
    1144:	02812403          	lw	s0,40(sp)
    1148:	03010113          	addi	sp,sp,48
    114c:	00008067          	ret

00001150 <led_send_rgb>:
    1150:	fe010113          	addi	sp,sp,-32
    1154:	00112e23          	sw	ra,28(sp)
    1158:	00812c23          	sw	s0,24(sp)
    115c:	02010413          	addi	s0,sp,32
    1160:	00050793          	mv	a5,a0
    1164:	00058693          	mv	a3,a1
    1168:	00060713          	mv	a4,a2
    116c:	fef407a3          	sb	a5,-17(s0)
    1170:	00068793          	mv	a5,a3
    1174:	fef40723          	sb	a5,-18(s0)
    1178:	00070793          	mv	a5,a4
    117c:	fef406a3          	sb	a5,-19(s0)
    1180:	fee44783          	lbu	a5,-18(s0)
    1184:	00078513          	mv	a0,a5
    1188:	f5dff0ef          	jal	ra,10e4 <led_send_data>
    118c:	fef44783          	lbu	a5,-17(s0)
    1190:	00078513          	mv	a0,a5
    1194:	f51ff0ef          	jal	ra,10e4 <led_send_data>
    1198:	fed44783          	lbu	a5,-19(s0)
    119c:	00078513          	mv	a0,a5
    11a0:	f45ff0ef          	jal	ra,10e4 <led_send_data>
    11a4:	00300513          	li	a0,3
    11a8:	361010ef          	jal	ra,2d08 <busy_wait>
    11ac:	00000013          	nop
    11b0:	01c12083          	lw	ra,28(sp)
    11b4:	01812403          	lw	s0,24(sp)
    11b8:	02010113          	addi	sp,sp,32
    11bc:	00008067          	ret

000011c0 <led_init>:
    11c0:	ff010113          	addi	sp,sp,-16
    11c4:	00112623          	sw	ra,12(sp)
    11c8:	00812423          	sw	s0,8(sp)
    11cc:	01010413          	addi	s0,sp,16
    11d0:	00000613          	li	a2,0
    11d4:	00000593          	li	a1,0
    11d8:	08000513          	li	a0,128
    11dc:	f75ff0ef          	jal	ra,1150 <led_send_rgb>
    11e0:	00000613          	li	a2,0
    11e4:	08000593          	li	a1,128
    11e8:	08000513          	li	a0,128
    11ec:	f65ff0ef          	jal	ra,1150 <led_send_rgb>
    11f0:	00000613          	li	a2,0
    11f4:	08000593          	li	a1,128
    11f8:	00000513          	li	a0,0
    11fc:	f55ff0ef          	jal	ra,1150 <led_send_rgb>
    1200:	08000613          	li	a2,128
    1204:	08000593          	li	a1,128
    1208:	00000513          	li	a0,0
    120c:	f45ff0ef          	jal	ra,1150 <led_send_rgb>
    1210:	08000613          	li	a2,128
    1214:	00000593          	li	a1,0
    1218:	00000513          	li	a0,0
    121c:	f35ff0ef          	jal	ra,1150 <led_send_rgb>
    1220:	08000613          	li	a2,128
    1224:	00000593          	li	a1,0
    1228:	08000513          	li	a0,128
    122c:	f25ff0ef          	jal	ra,1150 <led_send_rgb>
    1230:	08000613          	li	a2,128
    1234:	08000593          	li	a1,128
    1238:	08000513          	li	a0,128
    123c:	f15ff0ef          	jal	ra,1150 <led_send_rgb>
    1240:	00000613          	li	a2,0
    1244:	00000593          	li	a1,0
    1248:	08000513          	li	a0,128
    124c:	f05ff0ef          	jal	ra,1150 <led_send_rgb>
    1250:	00000613          	li	a2,0
    1254:	08000593          	li	a1,128
    1258:	08000513          	li	a0,128
    125c:	ef5ff0ef          	jal	ra,1150 <led_send_rgb>
    1260:	00000613          	li	a2,0
    1264:	08000593          	li	a1,128
    1268:	00000513          	li	a0,0
    126c:	ee5ff0ef          	jal	ra,1150 <led_send_rgb>
    1270:	08000613          	li	a2,128
    1274:	08000593          	li	a1,128
    1278:	00000513          	li	a0,0
    127c:	ed5ff0ef          	jal	ra,1150 <led_send_rgb>
    1280:	08000613          	li	a2,128
    1284:	00000593          	li	a1,0
    1288:	00000513          	li	a0,0
    128c:	ec5ff0ef          	jal	ra,1150 <led_send_rgb>
    1290:	08000613          	li	a2,128
    1294:	00000593          	li	a1,0
    1298:	08000513          	li	a0,128
    129c:	eb5ff0ef          	jal	ra,1150 <led_send_rgb>
    12a0:	08000613          	li	a2,128
    12a4:	08000593          	li	a1,128
    12a8:	08000513          	li	a0,128
    12ac:	ea5ff0ef          	jal	ra,1150 <led_send_rgb>
    12b0:	00000013          	nop
    12b4:	00c12083          	lw	ra,12(sp)
    12b8:	00812403          	lw	s0,8(sp)
    12bc:	01010113          	addi	sp,sp,16
    12c0:	00008067          	ret

000012c4 <ui_draw_gameover>:
    12c4:	fe010113          	addi	sp,sp,-32
    12c8:	00112e23          	sw	ra,28(sp)
    12cc:	00812c23          	sw	s0,24(sp)
    12d0:	02010413          	addi	s0,sp,32
    12d4:	00200713          	li	a4,2
    12d8:	00000693          	li	a3,0
    12dc:	100007b7          	lui	a5,0x10000
    12e0:	49878613          	addi	a2,a5,1176 # 10000498 <_data+0x498>
    12e4:	07800593          	li	a1,120
    12e8:	01000513          	li	a0,16
    12ec:	b91ff0ef          	jal	ra,e7c <lcd_draw_string>
    12f0:	00200713          	li	a4,2
    12f4:	000107b7          	lui	a5,0x10
    12f8:	fff78693          	addi	a3,a5,-1 # ffff <_data_lma+0xca67>
    12fc:	100007b7          	lui	a5,0x10000
    1300:	49878613          	addi	a2,a5,1176 # 10000498 <_data+0x498>
    1304:	07c00593          	li	a1,124
    1308:	01400513          	li	a0,20
    130c:	b71ff0ef          	jal	ra,e7c <lcd_draw_string>
    1310:	fe042623          	sw	zero,-20(s0)
    1314:	0640006f          	j	1378 <ui_draw_gameover+0xb4>
    1318:	400007b7          	lui	a5,0x40000
    131c:	00478793          	addi	a5,a5,4 # 40000004 <__freertos_irq_stack_top+0x2fffc004>
    1320:	0007a683          	lw	a3,0(a5)
    1324:	400007b7          	lui	a5,0x40000
    1328:	00478793          	addi	a5,a5,4 # 40000004 <__freertos_irq_stack_top+0x2fffc004>
    132c:	ffffe737          	lui	a4,0xffffe
    1330:	fff70713          	addi	a4,a4,-1 # ffffdfff <__freertos_irq_stack_top+0xefff9fff>
    1334:	00e6f733          	and	a4,a3,a4
    1338:	00e7a023          	sw	a4,0(a5)
    133c:	7d000513          	li	a0,2000
    1340:	1c9010ef          	jal	ra,2d08 <busy_wait>
    1344:	400007b7          	lui	a5,0x40000
    1348:	00478793          	addi	a5,a5,4 # 40000004 <__freertos_irq_stack_top+0x2fffc004>
    134c:	0007a683          	lw	a3,0(a5)
    1350:	400007b7          	lui	a5,0x40000
    1354:	00478793          	addi	a5,a5,4 # 40000004 <__freertos_irq_stack_top+0x2fffc004>
    1358:	00002737          	lui	a4,0x2
    135c:	00e6e733          	or	a4,a3,a4
    1360:	00e7a023          	sw	a4,0(a5)
    1364:	7d000513          	li	a0,2000
    1368:	1a1010ef          	jal	ra,2d08 <busy_wait>
    136c:	fec42783          	lw	a5,-20(s0)
    1370:	00178793          	addi	a5,a5,1
    1374:	fef42623          	sw	a5,-20(s0)
    1378:	fec42703          	lw	a4,-20(s0)
    137c:	1f300793          	li	a5,499
    1380:	f8e7dce3          	bge	a5,a4,1318 <ui_draw_gameover+0x54>
    1384:	00000013          	nop
    1388:	01c12083          	lw	ra,28(sp)
    138c:	01812403          	lw	s0,24(sp)
    1390:	02010113          	addi	sp,sp,32
    1394:	00008067          	ret

00001398 <ui_draw_icon>:
    1398:	fe010113          	addi	sp,sp,-32
    139c:	00112e23          	sw	ra,28(sp)
    13a0:	00812c23          	sw	s0,24(sp)
    13a4:	02010413          	addi	s0,sp,32
    13a8:	00050793          	mv	a5,a0
    13ac:	00058713          	mv	a4,a1
    13b0:	fef407a3          	sb	a5,-17(s0)
    13b4:	00070793          	mv	a5,a4
    13b8:	fef40723          	sb	a5,-18(s0)
    13bc:	fee44703          	lbu	a4,-18(s0)
    13c0:	00300793          	li	a5,3
    13c4:	02f777b3          	remu	a5,a4,a5
    13c8:	fef40723          	sb	a5,-18(s0)
    13cc:	fef44703          	lbu	a4,-17(s0)
    13d0:	00300793          	li	a5,3
    13d4:	02f777b3          	remu	a5,a4,a5
    13d8:	fef407a3          	sb	a5,-17(s0)
    13dc:	fef44783          	lbu	a5,-17(s0)
    13e0:	08079463          	bnez	a5,1468 <ui_draw_icon+0xd0>
    13e4:	fee44783          	lbu	a5,-18(s0)
    13e8:	01079713          	slli	a4,a5,0x10
    13ec:	01075713          	srli	a4,a4,0x10
    13f0:	05a00793          	li	a5,90
    13f4:	02f707b3          	mul	a5,a4,a5
    13f8:	01079793          	slli	a5,a5,0x10
    13fc:	0107d793          	srli	a5,a5,0x10
    1400:	01e78793          	addi	a5,a5,30
    1404:	01079793          	slli	a5,a5,0x10
    1408:	0107d793          	srli	a5,a5,0x10
    140c:	7e000713          	li	a4,2016
    1410:	05000693          	li	a3,80
    1414:	05000613          	li	a2,80
    1418:	05000593          	li	a1,80
    141c:	00078513          	mv	a0,a5
    1420:	eb0ff0ef          	jal	ra,ad0 <lcd_draw_rect>
    1424:	fee44783          	lbu	a5,-18(s0)
    1428:	01079713          	slli	a4,a5,0x10
    142c:	01075713          	srli	a4,a4,0x10
    1430:	05a00793          	li	a5,90
    1434:	02f707b3          	mul	a5,a4,a5
    1438:	01079793          	slli	a5,a5,0x10
    143c:	0107d793          	srli	a5,a5,0x10
    1440:	03678793          	addi	a5,a5,54
    1444:	01079513          	slli	a0,a5,0x10
    1448:	01055513          	srli	a0,a0,0x10
    144c:	00200713          	li	a4,2
    1450:	000107b7          	lui	a5,0x10
    1454:	80078693          	addi	a3,a5,-2048 # f800 <_data_lma+0xc268>
    1458:	04700613          	li	a2,71
    145c:	06400593          	li	a1,100
    1460:	f8cff0ef          	jal	ra,bec <lcd_draw_char>
    1464:	1200006f          	j	1584 <ui_draw_icon+0x1ec>
    1468:	fef44703          	lbu	a4,-17(s0)
    146c:	00100793          	li	a5,1
    1470:	08f71463          	bne	a4,a5,14f8 <ui_draw_icon+0x160>
    1474:	fee44783          	lbu	a5,-18(s0)
    1478:	01079713          	slli	a4,a5,0x10
    147c:	01075713          	srli	a4,a4,0x10
    1480:	05a00793          	li	a5,90
    1484:	02f707b3          	mul	a5,a4,a5
    1488:	01079793          	slli	a5,a5,0x10
    148c:	0107d793          	srli	a5,a5,0x10
    1490:	01e78793          	addi	a5,a5,30
    1494:	01079513          	slli	a0,a5,0x10
    1498:	01055513          	srli	a0,a0,0x10
    149c:	000107b7          	lui	a5,0x10
    14a0:	81f78713          	addi	a4,a5,-2017 # f81f <_data_lma+0xc287>
    14a4:	05000693          	li	a3,80
    14a8:	05000613          	li	a2,80
    14ac:	05000593          	li	a1,80
    14b0:	e20ff0ef          	jal	ra,ad0 <lcd_draw_rect>
    14b4:	fee44783          	lbu	a5,-18(s0)
    14b8:	01079713          	slli	a4,a5,0x10
    14bc:	01075713          	srli	a4,a4,0x10
    14c0:	05a00793          	li	a5,90
    14c4:	02f707b3          	mul	a5,a4,a5
    14c8:	01079793          	slli	a5,a5,0x10
    14cc:	0107d793          	srli	a5,a5,0x10
    14d0:	03678793          	addi	a5,a5,54
    14d4:	01079793          	slli	a5,a5,0x10
    14d8:	0107d793          	srli	a5,a5,0x10
    14dc:	00200713          	li	a4,2
    14e0:	7e000693          	li	a3,2016
    14e4:	05400613          	li	a2,84
    14e8:	06400593          	li	a1,100
    14ec:	00078513          	mv	a0,a5
    14f0:	efcff0ef          	jal	ra,bec <lcd_draw_char>
    14f4:	0900006f          	j	1584 <ui_draw_icon+0x1ec>
    14f8:	fef44703          	lbu	a4,-17(s0)
    14fc:	00200793          	li	a5,2
    1500:	08f71263          	bne	a4,a5,1584 <ui_draw_icon+0x1ec>
    1504:	fee44783          	lbu	a5,-18(s0)
    1508:	01079713          	slli	a4,a5,0x10
    150c:	01075713          	srli	a4,a4,0x10
    1510:	05a00793          	li	a5,90
    1514:	02f707b3          	mul	a5,a4,a5
    1518:	01079793          	slli	a5,a5,0x10
    151c:	0107d793          	srli	a5,a5,0x10
    1520:	01e78793          	addi	a5,a5,30
    1524:	01079793          	slli	a5,a5,0x10
    1528:	0107d793          	srli	a5,a5,0x10
    152c:	01f00713          	li	a4,31
    1530:	05000693          	li	a3,80
    1534:	05000613          	li	a2,80
    1538:	05000593          	li	a1,80
    153c:	00078513          	mv	a0,a5
    1540:	d90ff0ef          	jal	ra,ad0 <lcd_draw_rect>
    1544:	fee44783          	lbu	a5,-18(s0)
    1548:	01079713          	slli	a4,a5,0x10
    154c:	01075713          	srli	a4,a4,0x10
    1550:	05a00793          	li	a5,90
    1554:	02f707b3          	mul	a5,a4,a5
    1558:	01079793          	slli	a5,a5,0x10
    155c:	0107d793          	srli	a5,a5,0x10
    1560:	03678793          	addi	a5,a5,54
    1564:	01079513          	slli	a0,a5,0x10
    1568:	01055513          	srli	a0,a0,0x10
    156c:	00200713          	li	a4,2
    1570:	000107b7          	lui	a5,0x10
    1574:	fe078693          	addi	a3,a5,-32 # ffe0 <_data_lma+0xca48>
    1578:	04200613          	li	a2,66
    157c:	06400593          	li	a1,100
    1580:	e6cff0ef          	jal	ra,bec <lcd_draw_char>
    1584:	00000013          	nop
    1588:	01c12083          	lw	ra,28(sp)
    158c:	01812403          	lw	s0,24(sp)
    1590:	02010113          	addi	sp,sp,32
    1594:	00008067          	ret

00001598 <ui_draw_item>:
    1598:	fe010113          	addi	sp,sp,-32
    159c:	00112e23          	sw	ra,28(sp)
    15a0:	00812c23          	sw	s0,24(sp)
    15a4:	02010413          	addi	s0,sp,32
    15a8:	00050793          	mv	a5,a0
    15ac:	00058693          	mv	a3,a1
    15b0:	00060713          	mv	a4,a2
    15b4:	fef41723          	sh	a5,-18(s0)
    15b8:	00068793          	mv	a5,a3
    15bc:	fef41623          	sh	a5,-20(s0)
    15c0:	00070793          	mv	a5,a4
    15c4:	fef405a3          	sb	a5,-21(s0)
    15c8:	feb44783          	lbu	a5,-21(s0)
    15cc:	04079a63          	bnez	a5,1620 <ui_draw_item+0x88>
    15d0:	fec45583          	lhu	a1,-20(s0)
    15d4:	fee45503          	lhu	a0,-18(s0)
    15d8:	000107b7          	lui	a5,0x10
    15dc:	80078713          	addi	a4,a5,-2048 # f800 <_data_lma+0xc268>
    15e0:	01400693          	li	a3,20
    15e4:	01400613          	li	a2,20
    15e8:	ce8ff0ef          	jal	ra,ad0 <lcd_draw_rect>
    15ec:	fee45783          	lhu	a5,-18(s0)
    15f0:	00d78793          	addi	a5,a5,13
    15f4:	01079513          	slli	a0,a5,0x10
    15f8:	01055513          	srli	a0,a0,0x10
    15fc:	fec45783          	lhu	a5,-20(s0)
    1600:	00d78793          	addi	a5,a5,13
    1604:	01079593          	slli	a1,a5,0x10
    1608:	0105d593          	srli	a1,a1,0x10
    160c:	000107b7          	lui	a5,0x10
    1610:	fff78713          	addi	a4,a5,-1 # ffff <_data_lma+0xca67>
    1614:	00500693          	li	a3,5
    1618:	00500613          	li	a2,5
    161c:	cb4ff0ef          	jal	ra,ad0 <lcd_draw_rect>
    1620:	feb44703          	lbu	a4,-21(s0)
    1624:	00100793          	li	a5,1
    1628:	08f71463          	bne	a4,a5,16b0 <ui_draw_item+0x118>
    162c:	fec45583          	lhu	a1,-20(s0)
    1630:	fee45503          	lhu	a0,-18(s0)
    1634:	000107b7          	lui	a5,0x10
    1638:	80078713          	addi	a4,a5,-2048 # f800 <_data_lma+0xc268>
    163c:	01400693          	li	a3,20
    1640:	01400613          	li	a2,20
    1644:	c8cff0ef          	jal	ra,ad0 <lcd_draw_rect>
    1648:	fee45783          	lhu	a5,-18(s0)
    164c:	00378793          	addi	a5,a5,3
    1650:	01079513          	slli	a0,a5,0x10
    1654:	01055513          	srli	a0,a0,0x10
    1658:	fec45783          	lhu	a5,-20(s0)
    165c:	00578793          	addi	a5,a5,5
    1660:	01079593          	slli	a1,a5,0x10
    1664:	0105d593          	srli	a1,a1,0x10
    1668:	000107b7          	lui	a5,0x10
    166c:	c0078713          	addi	a4,a5,-1024 # fc00 <_data_lma+0xc668>
    1670:	00300693          	li	a3,3
    1674:	00300613          	li	a2,3
    1678:	c58ff0ef          	jal	ra,ad0 <lcd_draw_rect>
    167c:	fee45783          	lhu	a5,-18(s0)
    1680:	00d78793          	addi	a5,a5,13
    1684:	01079513          	slli	a0,a5,0x10
    1688:	01055513          	srli	a0,a0,0x10
    168c:	fec45783          	lhu	a5,-20(s0)
    1690:	00b78793          	addi	a5,a5,11
    1694:	01079593          	slli	a1,a5,0x10
    1698:	0105d593          	srli	a1,a1,0x10
    169c:	000107b7          	lui	a5,0x10
    16a0:	c0078713          	addi	a4,a5,-1024 # fc00 <_data_lma+0xc668>
    16a4:	00300693          	li	a3,3
    16a8:	00200613          	li	a2,2
    16ac:	c24ff0ef          	jal	ra,ad0 <lcd_draw_rect>
    16b0:	feb44703          	lbu	a4,-21(s0)
    16b4:	00200793          	li	a5,2
    16b8:	02f71063          	bne	a4,a5,16d8 <ui_draw_item+0x140>
    16bc:	fec45583          	lhu	a1,-20(s0)
    16c0:	fee45503          	lhu	a0,-18(s0)
    16c4:	000087b7          	lui	a5,0x8
    16c8:	7e078713          	addi	a4,a5,2016 # 87e0 <_data_lma+0x5248>
    16cc:	01400693          	li	a3,20
    16d0:	01400613          	li	a2,20
    16d4:	bfcff0ef          	jal	ra,ad0 <lcd_draw_rect>
    16d8:	00000013          	nop
    16dc:	01c12083          	lw	ra,28(sp)
    16e0:	01812403          	lw	s0,24(sp)
    16e4:	02010113          	addi	sp,sp,32
    16e8:	00008067          	ret

000016ec <ui_draw_scene>:
    16ec:	fe010113          	addi	sp,sp,-32
    16f0:	00112e23          	sw	ra,28(sp)
    16f4:	00812c23          	sw	s0,24(sp)
    16f8:	02010413          	addi	s0,sp,32
    16fc:	00050793          	mv	a5,a0
    1700:	fef407a3          	sb	a5,-17(s0)
    1704:	fef44783          	lbu	a5,-17(s0)
    1708:	0a079863          	bnez	a5,17b8 <ui_draw_scene+0xcc>
    170c:	ab5ff0ef          	jal	ra,11c0 <led_init>
    1710:	000107b7          	lui	a5,0x10
    1714:	80078513          	addi	a0,a5,-2048 # f800 <_data_lma+0xc268>
    1718:	b2cff0ef          	jal	ra,a44 <lcd_clear>
    171c:	00200713          	li	a4,2
    1720:	00000693          	li	a3,0
    1724:	100007b7          	lui	a5,0x10000
    1728:	4a478613          	addi	a2,a5,1188 # 100004a4 <_data+0x4a4>
    172c:	0a600593          	li	a1,166
    1730:	06400513          	li	a0,100
    1734:	f48ff0ef          	jal	ra,e7c <lcd_draw_string>
    1738:	00200713          	li	a4,2
    173c:	000107b7          	lui	a5,0x10
    1740:	fff78693          	addi	a3,a5,-1 # ffff <_data_lma+0xca67>
    1744:	100007b7          	lui	a5,0x10000
    1748:	4a478613          	addi	a2,a5,1188 # 100004a4 <_data+0x4a4>
    174c:	0aa00593          	li	a1,170
    1750:	06000513          	li	a0,96
    1754:	f28ff0ef          	jal	ra,e7c <lcd_draw_string>
    1758:	00000713          	li	a4,0
    175c:	05000693          	li	a3,80
    1760:	05000613          	li	a2,80
    1764:	04c00593          	li	a1,76
    1768:	07c00513          	li	a0,124
    176c:	b64ff0ef          	jal	ra,ad0 <lcd_draw_rect>
    1770:	00100713          	li	a4,1
    1774:	000107b7          	lui	a5,0x10
    1778:	fff78693          	addi	a3,a5,-1 # ffff <_data_lma+0xca67>
    177c:	100007b7          	lui	a5,0x10000
    1780:	4ac78613          	addi	a2,a5,1196 # 100004ac <_data+0x4ac>
    1784:	01400593          	li	a1,20
    1788:	06400513          	li	a0,100
    178c:	ef0ff0ef          	jal	ra,e7c <lcd_draw_string>
    1790:	00100593          	li	a1,1
    1794:	00000513          	li	a0,0
    1798:	c01ff0ef          	jal	ra,1398 <ui_draw_icon>
    179c:	00200593          	li	a1,2
    17a0:	00100513          	li	a0,1
    17a4:	bf5ff0ef          	jal	ra,1398 <ui_draw_icon>
    17a8:	00300593          	li	a1,3
    17ac:	00200513          	li	a0,2
    17b0:	be9ff0ef          	jal	ra,1398 <ui_draw_icon>
    17b4:	0500006f          	j	1804 <ui_draw_scene+0x118>
    17b8:	fef44703          	lbu	a4,-17(s0)
    17bc:	00100793          	li	a5,1
    17c0:	00f71a63          	bne	a4,a5,17d4 <ui_draw_scene+0xe8>
    17c4:	000087b7          	lui	a5,0x8
    17c8:	7e078513          	addi	a0,a5,2016 # 87e0 <_data_lma+0x5248>
    17cc:	a78ff0ef          	jal	ra,a44 <lcd_clear>
    17d0:	0340006f          	j	1804 <ui_draw_scene+0x118>
    17d4:	fef44703          	lbu	a4,-17(s0)
    17d8:	00200793          	li	a5,2
    17dc:	00f71a63          	bne	a4,a5,17f0 <ui_draw_scene+0x104>
    17e0:	000107b7          	lui	a5,0x10
    17e4:	fe078513          	addi	a0,a5,-32 # ffe0 <_data_lma+0xca48>
    17e8:	a5cff0ef          	jal	ra,a44 <lcd_clear>
    17ec:	0180006f          	j	1804 <ui_draw_scene+0x118>
    17f0:	fef44703          	lbu	a4,-17(s0)
    17f4:	00300793          	li	a5,3
    17f8:	00f71663          	bne	a4,a5,1804 <ui_draw_scene+0x118>
    17fc:	01f00513          	li	a0,31
    1800:	a44ff0ef          	jal	ra,a44 <lcd_clear>
    1804:	00000013          	nop
    1808:	01c12083          	lw	ra,28(sp)
    180c:	01812403          	lw	s0,24(sp)
    1810:	02010113          	addi	sp,sp,32
    1814:	00008067          	ret

00001818 <main>:
    1818:	dd010113          	addi	sp,sp,-560
    181c:	22112623          	sw	ra,556(sp)
    1820:	22812423          	sw	s0,552(sp)
    1824:	23010413          	addi	s0,sp,560
    1828:	3e5010ef          	jal	ra,340c <uart_init>
    182c:	941fe0ef          	jal	ra,16c <gpio_init>
    1830:	9e8ff0ef          	jal	ra,a18 <lcd_init>
    1834:	98dff0ef          	jal	ra,11c0 <led_init>
    1838:	00000513          	li	a0,0
    183c:	eb1ff0ef          	jal	ra,16ec <ui_draw_scene>
    1840:	fe0407a3          	sb	zero,-17(s0)
    1844:	fe040723          	sb	zero,-18(s0)
    1848:	fe0406a3          	sb	zero,-19(s0)
    184c:	fe040623          	sb	zero,-20(s0)
    1850:	eac40793          	addi	a5,s0,-340
    1854:	0c000713          	li	a4,192
    1858:	00070613          	mv	a2,a4
    185c:	00000593          	li	a1,0
    1860:	00078513          	mv	a0,a5
    1864:	459010ef          	jal	ra,34bc <memset>
    1868:	00700793          	li	a5,7
    186c:	fef405a3          	sb	a5,-21(s0)
    1870:	00500793          	li	a5,5
    1874:	fef40523          	sb	a5,-22(s0)
    1878:	feb44783          	lbu	a5,-21(s0)
    187c:	00178793          	addi	a5,a5,1
    1880:	fef404a3          	sb	a5,-23(s0)
    1884:	fea44783          	lbu	a5,-22(s0)
    1888:	00278793          	addi	a5,a5,2
    188c:	fef40423          	sb	a5,-24(s0)
    1890:	00300793          	li	a5,3
    1894:	fef403a3          	sb	a5,-25(s0)
    1898:	00400793          	li	a5,4
    189c:	fef40323          	sb	a5,-26(s0)
    18a0:	fea40783          	lb	a5,-22(s0)
    18a4:	feb40703          	lb	a4,-21(s0)
    18a8:	ffe70713          	addi	a4,a4,-2 # 1ffe <main+0x7e6>
    18ac:	00479793          	slli	a5,a5,0x4
    18b0:	ff040693          	addi	a3,s0,-16
    18b4:	00f687b3          	add	a5,a3,a5
    18b8:	00e787b3          	add	a5,a5,a4
    18bc:	00300713          	li	a4,3
    18c0:	eae78e23          	sb	a4,-324(a5)
    18c4:	fea40783          	lb	a5,-22(s0)
    18c8:	feb40703          	lb	a4,-21(s0)
    18cc:	fff70713          	addi	a4,a4,-1
    18d0:	00479793          	slli	a5,a5,0x4
    18d4:	ff040693          	addi	a3,s0,-16
    18d8:	00f687b3          	add	a5,a3,a5
    18dc:	00e787b3          	add	a5,a5,a4
    18e0:	00200713          	li	a4,2
    18e4:	eae78e23          	sb	a4,-324(a5)
    18e8:	fea40783          	lb	a5,-22(s0)
    18ec:	feb40703          	lb	a4,-21(s0)
    18f0:	00479793          	slli	a5,a5,0x4
    18f4:	ff040693          	addi	a3,s0,-16
    18f8:	00f687b3          	add	a5,a3,a5
    18fc:	00e787b3          	add	a5,a5,a4
    1900:	00100713          	li	a4,1
    1904:	eae78e23          	sb	a4,-324(a5)
    1908:	fe844783          	lbu	a5,-24(s0)
    190c:	fe944703          	lbu	a4,-23(s0)
    1910:	00479793          	slli	a5,a5,0x4
    1914:	ff040693          	addi	a3,s0,-16
    1918:	00f687b3          	add	a5,a3,a5
    191c:	00e787b3          	add	a5,a5,a4
    1920:	fff00713          	li	a4,-1
    1924:	eae78e23          	sb	a4,-324(a5)
    1928:	fe0402a3          	sb	zero,-27(s0)
    192c:	dec40793          	addi	a5,s0,-532
    1930:	0c000713          	li	a4,192
    1934:	00070613          	mv	a2,a4
    1938:	00000593          	li	a1,0
    193c:	00078513          	mv	a0,a5
    1940:	37d010ef          	jal	ra,34bc <memset>
    1944:	100007b7          	lui	a5,0x10000
    1948:	5207a783          	lw	a5,1312(a5) # 10000520 <_data+0x520>
    194c:	def42423          	sw	a5,-536(s0)
    1950:	8041a783          	lw	a5,-2044(gp) # 10000524 <_data+0x524>
    1954:	def42223          	sw	a5,-540(s0)
    1958:	00700793          	li	a5,7
    195c:	fef40223          	sb	a5,-28(s0)
    1960:	fe0401a3          	sb	zero,-29(s0)
    1964:	000057b7          	lui	a5,0x5
    1968:	e2078513          	addi	a0,a5,-480 # 4e20 <_data_lma+0x1888>
    196c:	39c010ef          	jal	ra,2d08 <busy_wait>
    1970:	fed44783          	lbu	a5,-19(s0)
    1974:	00178793          	addi	a5,a5,1
    1978:	fef406a3          	sb	a5,-19(s0)
    197c:	229010ef          	jal	ra,33a4 <uart_getc_nowait>
    1980:	00050793          	mv	a5,a0
    1984:	fef40123          	sb	a5,-30(s0)
    1988:	fe344783          	lbu	a5,-29(s0)
    198c:	00078a63          	beqz	a5,19a0 <main+0x188>
    1990:	fe344783          	lbu	a5,-29(s0)
    1994:	fff78793          	addi	a5,a5,-1
    1998:	fef401a3          	sb	a5,-29(s0)
    199c:	0b00006f          	j	1a4c <main+0x234>
    19a0:	fe244783          	lbu	a5,-30(s0)
    19a4:	0a079463          	bnez	a5,1a4c <main+0x234>
    19a8:	400007b7          	lui	a5,0x40000
    19ac:	00478793          	addi	a5,a5,4 # 40000004 <__freertos_irq_stack_top+0x2fffc004>
    19b0:	0007a783          	lw	a5,0(a5)
    19b4:	0107f793          	andi	a5,a5,16
    19b8:	00079863          	bnez	a5,19c8 <main+0x1b0>
    19bc:	04100793          	li	a5,65
    19c0:	fef40123          	sb	a5,-30(s0)
    19c4:	0800006f          	j	1a44 <main+0x22c>
    19c8:	400007b7          	lui	a5,0x40000
    19cc:	00478793          	addi	a5,a5,4 # 40000004 <__freertos_irq_stack_top+0x2fffc004>
    19d0:	0007a783          	lw	a5,0(a5)
    19d4:	0207f793          	andi	a5,a5,32
    19d8:	00079863          	bnez	a5,19e8 <main+0x1d0>
    19dc:	05700793          	li	a5,87
    19e0:	fef40123          	sb	a5,-30(s0)
    19e4:	0600006f          	j	1a44 <main+0x22c>
    19e8:	400007b7          	lui	a5,0x40000
    19ec:	00478793          	addi	a5,a5,4 # 40000004 <__freertos_irq_stack_top+0x2fffc004>
    19f0:	0007a783          	lw	a5,0(a5)
    19f4:	0407f793          	andi	a5,a5,64
    19f8:	00079863          	bnez	a5,1a08 <main+0x1f0>
    19fc:	05300793          	li	a5,83
    1a00:	fef40123          	sb	a5,-30(s0)
    1a04:	0400006f          	j	1a44 <main+0x22c>
    1a08:	400007b7          	lui	a5,0x40000
    1a0c:	00478793          	addi	a5,a5,4 # 40000004 <__freertos_irq_stack_top+0x2fffc004>
    1a10:	0007a783          	lw	a5,0(a5)
    1a14:	0807f793          	andi	a5,a5,128
    1a18:	00079863          	bnez	a5,1a28 <main+0x210>
    1a1c:	04400793          	li	a5,68
    1a20:	fef40123          	sb	a5,-30(s0)
    1a24:	0200006f          	j	1a44 <main+0x22c>
    1a28:	400007b7          	lui	a5,0x40000
    1a2c:	00478793          	addi	a5,a5,4 # 40000004 <__freertos_irq_stack_top+0x2fffc004>
    1a30:	0007a783          	lw	a5,0(a5)
    1a34:	0087f793          	andi	a5,a5,8
    1a38:	00079663          	bnez	a5,1a44 <main+0x22c>
    1a3c:	05100793          	li	a5,81
    1a40:	fef40123          	sb	a5,-30(s0)
    1a44:	00a00793          	li	a5,10
    1a48:	fef401a3          	sb	a5,-29(s0)
    1a4c:	fe244783          	lbu	a5,-30(s0)
    1a50:	6e078863          	beqz	a5,2140 <__stack_size+0x140>
    1a54:	fe244783          	lbu	a5,-30(s0)
    1a58:	00078593          	mv	a1,a5
    1a5c:	100007b7          	lui	a5,0x10000
    1a60:	4c078513          	addi	a0,a5,1216 # 100004c0 <_data+0x4c0>
    1a64:	095010ef          	jal	ra,32f8 <xprintf>
    1a68:	fef44783          	lbu	a5,-17(s0)
    1a6c:	2a079a63          	bnez	a5,1d20 <main+0x508>
    1a70:	fe244703          	lbu	a4,-30(s0)
    1a74:	04100793          	li	a5,65
    1a78:	00f70863          	beq	a4,a5,1a88 <main+0x270>
    1a7c:	fe244703          	lbu	a4,-30(s0)
    1a80:	04400793          	li	a5,68
    1a84:	0af71a63          	bne	a4,a5,1b38 <main+0x320>
    1a88:	fe244703          	lbu	a4,-30(s0)
    1a8c:	04100793          	li	a5,65
    1a90:	02f71863          	bne	a4,a5,1ac0 <main+0x2a8>
    1a94:	fee40703          	lb	a4,-18(s0)
    1a98:	00200793          	li	a5,2
    1a9c:	00f71663          	bne	a4,a5,1aa8 <main+0x290>
    1aa0:	fe040723          	sb	zero,-18(s0)
    1aa4:	0500006f          	j	1af4 <main+0x2dc>
    1aa8:	fee40783          	lb	a5,-18(s0)
    1aac:	0ff7f793          	andi	a5,a5,255
    1ab0:	00178793          	addi	a5,a5,1
    1ab4:	0ff7f793          	andi	a5,a5,255
    1ab8:	fef40723          	sb	a5,-18(s0)
    1abc:	0380006f          	j	1af4 <main+0x2dc>
    1ac0:	fe244703          	lbu	a4,-30(s0)
    1ac4:	04400793          	li	a5,68
    1ac8:	02f71663          	bne	a4,a5,1af4 <main+0x2dc>
    1acc:	fee40783          	lb	a5,-18(s0)
    1ad0:	00079863          	bnez	a5,1ae0 <main+0x2c8>
    1ad4:	00200793          	li	a5,2
    1ad8:	fef40723          	sb	a5,-18(s0)
    1adc:	0180006f          	j	1af4 <main+0x2dc>
    1ae0:	fee40783          	lb	a5,-18(s0)
    1ae4:	0ff7f793          	andi	a5,a5,255
    1ae8:	fff78793          	addi	a5,a5,-1
    1aec:	0ff7f793          	andi	a5,a5,255
    1af0:	fef40723          	sb	a5,-18(s0)
    1af4:	fee44783          	lbu	a5,-18(s0)
    1af8:	00100593          	li	a1,1
    1afc:	00078513          	mv	a0,a5
    1b00:	899ff0ef          	jal	ra,1398 <ui_draw_icon>
    1b04:	fee44783          	lbu	a5,-18(s0)
    1b08:	00178793          	addi	a5,a5,1
    1b0c:	0ff7f793          	andi	a5,a5,255
    1b10:	00200593          	li	a1,2
    1b14:	00078513          	mv	a0,a5
    1b18:	881ff0ef          	jal	ra,1398 <ui_draw_icon>
    1b1c:	fee44783          	lbu	a5,-18(s0)
    1b20:	00278793          	addi	a5,a5,2
    1b24:	0ff7f793          	andi	a5,a5,255
    1b28:	00300593          	li	a1,3
    1b2c:	00078513          	mv	a0,a5
    1b30:	869ff0ef          	jal	ra,1398 <ui_draw_icon>
    1b34:	1ec0006f          	j	1d20 <main+0x508>
    1b38:	fe244703          	lbu	a4,-30(s0)
    1b3c:	05700793          	li	a5,87
    1b40:	1ef71063          	bne	a4,a5,1d20 <main+0x508>
    1b44:	fee44783          	lbu	a5,-18(s0)
    1b48:	00178793          	addi	a5,a5,1
    1b4c:	fef407a3          	sb	a5,-17(s0)
    1b50:	fee40783          	lb	a5,-18(s0)
    1b54:	10079263          	bnez	a5,1c58 <main+0x440>
    1b58:	fc042e23          	sw	zero,-36(s0)
    1b5c:	0200006f          	j	1b7c <main+0x364>
    1b60:	00000613          	li	a2,0
    1b64:	00000593          	li	a1,0
    1b68:	00000513          	li	a0,0
    1b6c:	de4ff0ef          	jal	ra,1150 <led_send_rgb>
    1b70:	fdc42783          	lw	a5,-36(s0)
    1b74:	00178793          	addi	a5,a5,1
    1b78:	fcf42e23          	sw	a5,-36(s0)
    1b7c:	fdc42703          	lw	a4,-36(s0)
    1b80:	01300793          	li	a5,19
    1b84:	fce7dee3          	bge	a5,a4,1b60 <main+0x348>
    1b88:	fe040623          	sb	zero,-20(s0)
    1b8c:	00700793          	li	a5,7
    1b90:	fef405a3          	sb	a5,-21(s0)
    1b94:	00500793          	li	a5,5
    1b98:	fef40523          	sb	a5,-22(s0)
    1b9c:	feb44783          	lbu	a5,-21(s0)
    1ba0:	00178793          	addi	a5,a5,1
    1ba4:	fef404a3          	sb	a5,-23(s0)
    1ba8:	fea44783          	lbu	a5,-22(s0)
    1bac:	00278793          	addi	a5,a5,2
    1bb0:	fef40423          	sb	a5,-24(s0)
    1bb4:	00300793          	li	a5,3
    1bb8:	fef403a3          	sb	a5,-25(s0)
    1bbc:	00400793          	li	a5,4
    1bc0:	fef40323          	sb	a5,-26(s0)
    1bc4:	fea40783          	lb	a5,-22(s0)
    1bc8:	feb40703          	lb	a4,-21(s0)
    1bcc:	ffe70713          	addi	a4,a4,-2
    1bd0:	00479793          	slli	a5,a5,0x4
    1bd4:	ff040693          	addi	a3,s0,-16
    1bd8:	00f687b3          	add	a5,a3,a5
    1bdc:	00e787b3          	add	a5,a5,a4
    1be0:	00300713          	li	a4,3
    1be4:	eae78e23          	sb	a4,-324(a5)
    1be8:	fea40783          	lb	a5,-22(s0)
    1bec:	feb40703          	lb	a4,-21(s0)
    1bf0:	fff70713          	addi	a4,a4,-1
    1bf4:	00479793          	slli	a5,a5,0x4
    1bf8:	ff040693          	addi	a3,s0,-16
    1bfc:	00f687b3          	add	a5,a3,a5
    1c00:	00e787b3          	add	a5,a5,a4
    1c04:	00200713          	li	a4,2
    1c08:	eae78e23          	sb	a4,-324(a5)
    1c0c:	fea40783          	lb	a5,-22(s0)
    1c10:	feb40703          	lb	a4,-21(s0)
    1c14:	00479793          	slli	a5,a5,0x4
    1c18:	ff040693          	addi	a3,s0,-16
    1c1c:	00f687b3          	add	a5,a3,a5
    1c20:	00e787b3          	add	a5,a5,a4
    1c24:	00100713          	li	a4,1
    1c28:	eae78e23          	sb	a4,-324(a5)
    1c2c:	fe844783          	lbu	a5,-24(s0)
    1c30:	fe944703          	lbu	a4,-23(s0)
    1c34:	00479793          	slli	a5,a5,0x4
    1c38:	ff040693          	addi	a3,s0,-16
    1c3c:	00f687b3          	add	a5,a3,a5
    1c40:	00e787b3          	add	a5,a5,a4
    1c44:	fff00713          	li	a4,-1
    1c48:	eae78e23          	sb	a4,-324(a5)
    1c4c:	00100513          	li	a0,1
    1c50:	a9dff0ef          	jal	ra,16ec <ui_draw_scene>
    1c54:	7cd0006f          	j	2c20 <__stack_size+0xc20>
    1c58:	fee40703          	lb	a4,-18(s0)
    1c5c:	00100793          	li	a5,1
    1c60:	0af71463          	bne	a4,a5,1d08 <main+0x4f0>
    1c64:	fc042c23          	sw	zero,-40(s0)
    1c68:	0200006f          	j	1c88 <main+0x470>
    1c6c:	00000613          	li	a2,0
    1c70:	00000593          	li	a1,0
    1c74:	00000513          	li	a0,0
    1c78:	cd8ff0ef          	jal	ra,1150 <led_send_rgb>
    1c7c:	fd842783          	lw	a5,-40(s0)
    1c80:	00178793          	addi	a5,a5,1
    1c84:	fcf42c23          	sw	a5,-40(s0)
    1c88:	fd842703          	lw	a4,-40(s0)
    1c8c:	00d00793          	li	a5,13
    1c90:	fce7dee3          	bge	a5,a4,1c6c <main+0x454>
    1c94:	fc042a23          	sw	zero,-44(s0)
    1c98:	04c0006f          	j	1ce4 <main+0x4cc>
    1c9c:	fc042823          	sw	zero,-48(s0)
    1ca0:	02c0006f          	j	1ccc <main+0x4b4>
    1ca4:	fd442783          	lw	a5,-44(s0)
    1ca8:	00479793          	slli	a5,a5,0x4
    1cac:	ff040713          	addi	a4,s0,-16
    1cb0:	00f70733          	add	a4,a4,a5
    1cb4:	fd042783          	lw	a5,-48(s0)
    1cb8:	00f707b3          	add	a5,a4,a5
    1cbc:	de078e23          	sb	zero,-516(a5)
    1cc0:	fd042783          	lw	a5,-48(s0)
    1cc4:	00178793          	addi	a5,a5,1
    1cc8:	fcf42823          	sw	a5,-48(s0)
    1ccc:	fd042703          	lw	a4,-48(s0)
    1cd0:	00f00793          	li	a5,15
    1cd4:	fce7d8e3          	bge	a5,a4,1ca4 <main+0x48c>
    1cd8:	fd442783          	lw	a5,-44(s0)
    1cdc:	00178793          	addi	a5,a5,1
    1ce0:	fcf42a23          	sw	a5,-44(s0)
    1ce4:	fd442703          	lw	a4,-44(s0)
    1ce8:	00b00793          	li	a5,11
    1cec:	fae7d8e3          	bge	a5,a4,1c9c <main+0x484>
    1cf0:	fe0402a3          	sb	zero,-27(s0)
    1cf4:	00700793          	li	a5,7
    1cf8:	f6f407a3          	sb	a5,-145(s0)
    1cfc:	00200513          	li	a0,2
    1d00:	9edff0ef          	jal	ra,16ec <ui_draw_scene>
    1d04:	71d0006f          	j	2c20 <__stack_size+0xc20>
    1d08:	fee40703          	lb	a4,-18(s0)
    1d0c:	00200793          	li	a5,2
    1d10:	00f71863          	bne	a4,a5,1d20 <main+0x508>
    1d14:	00300513          	li	a0,3
    1d18:	9d5ff0ef          	jal	ra,16ec <ui_draw_scene>
    1d1c:	7050006f          	j	2c20 <__stack_size+0xc20>
    1d20:	fef44703          	lbu	a4,-17(s0)
    1d24:	00100793          	li	a5,1
    1d28:	0af71863          	bne	a4,a5,1dd8 <main+0x5c0>
    1d2c:	fe244703          	lbu	a4,-30(s0)
    1d30:	04100793          	li	a5,65
    1d34:	00f71e63          	bne	a4,a5,1d50 <main+0x538>
    1d38:	fe644703          	lbu	a4,-26(s0)
    1d3c:	00400793          	li	a5,4
    1d40:	08f70c63          	beq	a4,a5,1dd8 <main+0x5c0>
    1d44:	00100793          	li	a5,1
    1d48:	fef40323          	sb	a5,-26(s0)
    1d4c:	08c0006f          	j	1dd8 <main+0x5c0>
    1d50:	fe244703          	lbu	a4,-30(s0)
    1d54:	05700793          	li	a5,87
    1d58:	00f71e63          	bne	a4,a5,1d74 <main+0x55c>
    1d5c:	fe644703          	lbu	a4,-26(s0)
    1d60:	00300793          	li	a5,3
    1d64:	06f70a63          	beq	a4,a5,1dd8 <main+0x5c0>
    1d68:	00200793          	li	a5,2
    1d6c:	fef40323          	sb	a5,-26(s0)
    1d70:	0680006f          	j	1dd8 <main+0x5c0>
    1d74:	fe244703          	lbu	a4,-30(s0)
    1d78:	05300793          	li	a5,83
    1d7c:	00f71e63          	bne	a4,a5,1d98 <main+0x580>
    1d80:	fe644703          	lbu	a4,-26(s0)
    1d84:	00200793          	li	a5,2
    1d88:	04f70863          	beq	a4,a5,1dd8 <main+0x5c0>
    1d8c:	00300793          	li	a5,3
    1d90:	fef40323          	sb	a5,-26(s0)
    1d94:	0440006f          	j	1dd8 <main+0x5c0>
    1d98:	fe244703          	lbu	a4,-30(s0)
    1d9c:	04400793          	li	a5,68
    1da0:	00f71e63          	bne	a4,a5,1dbc <main+0x5a4>
    1da4:	fe644703          	lbu	a4,-26(s0)
    1da8:	00100793          	li	a5,1
    1dac:	02f70663          	beq	a4,a5,1dd8 <main+0x5c0>
    1db0:	00400793          	li	a5,4
    1db4:	fef40323          	sb	a5,-26(s0)
    1db8:	0200006f          	j	1dd8 <main+0x5c0>
    1dbc:	fe244703          	lbu	a4,-30(s0)
    1dc0:	05100793          	li	a5,81
    1dc4:	00f71a63          	bne	a4,a5,1dd8 <main+0x5c0>
    1dc8:	fe0407a3          	sb	zero,-17(s0)
    1dcc:	00000513          	li	a0,0
    1dd0:	91dff0ef          	jal	ra,16ec <ui_draw_scene>
    1dd4:	64d0006f          	j	2c20 <__stack_size+0xc20>
    1dd8:	fef44703          	lbu	a4,-17(s0)
    1ddc:	00200793          	li	a5,2
    1de0:	30f71463          	bne	a4,a5,20e8 <__stack_size+0xe8>
    1de4:	fe244703          	lbu	a4,-30(s0)
    1de8:	04100793          	li	a5,65
    1dec:	04f71e63          	bne	a4,a5,1e48 <main+0x630>
    1df0:	fe444783          	lbu	a5,-28(s0)
    1df4:	0047f793          	andi	a5,a5,4
    1df8:	04078863          	beqz	a5,1e48 <main+0x630>
    1dfc:	fc042623          	sw	zero,-52(s0)
    1e00:	0380006f          	j	1e38 <main+0x620>
    1e04:	fcc42783          	lw	a5,-52(s0)
    1e08:	ff040713          	addi	a4,s0,-16
    1e0c:	00f707b3          	add	a5,a4,a5
    1e10:	df87c783          	lbu	a5,-520(a5)
    1e14:	fff78793          	addi	a5,a5,-1
    1e18:	0ff7f713          	andi	a4,a5,255
    1e1c:	fcc42783          	lw	a5,-52(s0)
    1e20:	ff040693          	addi	a3,s0,-16
    1e24:	00f687b3          	add	a5,a3,a5
    1e28:	dee78c23          	sb	a4,-520(a5)
    1e2c:	fcc42783          	lw	a5,-52(s0)
    1e30:	00178793          	addi	a5,a5,1
    1e34:	fcf42623          	sw	a5,-52(s0)
    1e38:	fcc42703          	lw	a4,-52(s0)
    1e3c:	00300793          	li	a5,3
    1e40:	fce7d2e3          	bge	a5,a4,1e04 <main+0x5ec>
    1e44:	2a40006f          	j	20e8 <__stack_size+0xe8>
    1e48:	fe244703          	lbu	a4,-30(s0)
    1e4c:	04400793          	li	a5,68
    1e50:	04f71e63          	bne	a4,a5,1eac <main+0x694>
    1e54:	fe444783          	lbu	a5,-28(s0)
    1e58:	0017f793          	andi	a5,a5,1
    1e5c:	04078863          	beqz	a5,1eac <main+0x694>
    1e60:	fc042423          	sw	zero,-56(s0)
    1e64:	0380006f          	j	1e9c <main+0x684>
    1e68:	fc842783          	lw	a5,-56(s0)
    1e6c:	ff040713          	addi	a4,s0,-16
    1e70:	00f707b3          	add	a5,a4,a5
    1e74:	df87c783          	lbu	a5,-520(a5)
    1e78:	00178793          	addi	a5,a5,1
    1e7c:	0ff7f713          	andi	a4,a5,255
    1e80:	fc842783          	lw	a5,-56(s0)
    1e84:	ff040693          	addi	a3,s0,-16
    1e88:	00f687b3          	add	a5,a3,a5
    1e8c:	dee78c23          	sb	a4,-520(a5)
    1e90:	fc842783          	lw	a5,-56(s0)
    1e94:	00178793          	addi	a5,a5,1
    1e98:	fcf42423          	sw	a5,-56(s0)
    1e9c:	fc842703          	lw	a4,-56(s0)
    1ea0:	00300793          	li	a5,3
    1ea4:	fce7d2e3          	bge	a5,a4,1e68 <main+0x650>
    1ea8:	2400006f          	j	20e8 <__stack_size+0xe8>
    1eac:	fe244703          	lbu	a4,-30(s0)
    1eb0:	05700793          	li	a5,87
    1eb4:	10f71863          	bne	a4,a5,1fc4 <main+0x7ac>
    1eb8:	fc042223          	sw	zero,-60(s0)
    1ebc:	0680006f          	j	1f24 <main+0x70c>
    1ec0:	fc442783          	lw	a5,-60(s0)
    1ec4:	ff040713          	addi	a4,s0,-16
    1ec8:	00f707b3          	add	a5,a4,a5
    1ecc:	df87c703          	lbu	a4,-520(a5)
    1ed0:	dea44783          	lbu	a5,-534(s0)
    1ed4:	40f707b3          	sub	a5,a4,a5
    1ed8:	0ff7f713          	andi	a4,a5,255
    1edc:	fc442783          	lw	a5,-60(s0)
    1ee0:	ff040693          	addi	a3,s0,-16
    1ee4:	00f687b3          	add	a5,a3,a5
    1ee8:	dee78823          	sb	a4,-528(a5)
    1eec:	fc442783          	lw	a5,-60(s0)
    1ef0:	ff040713          	addi	a4,s0,-16
    1ef4:	00f707b3          	add	a5,a4,a5
    1ef8:	df47c703          	lbu	a4,-524(a5)
    1efc:	de644783          	lbu	a5,-538(s0)
    1f00:	40f707b3          	sub	a5,a4,a5
    1f04:	0ff7f713          	andi	a4,a5,255
    1f08:	fc442783          	lw	a5,-60(s0)
    1f0c:	ff040693          	addi	a3,s0,-16
    1f10:	00f687b3          	add	a5,a3,a5
    1f14:	dee78623          	sb	a4,-532(a5)
    1f18:	fc442783          	lw	a5,-60(s0)
    1f1c:	00178793          	addi	a5,a5,1
    1f20:	fcf42223          	sw	a5,-60(s0)
    1f24:	fc442703          	lw	a4,-60(s0)
    1f28:	00300793          	li	a5,3
    1f2c:	f8e7dae3          	bge	a5,a4,1ec0 <main+0x6a8>
    1f30:	fc042023          	sw	zero,-64(s0)
    1f34:	0800006f          	j	1fb4 <main+0x79c>
    1f38:	fc042783          	lw	a5,-64(s0)
    1f3c:	ff040713          	addi	a4,s0,-16
    1f40:	00f707b3          	add	a5,a4,a5
    1f44:	df87c703          	lbu	a4,-520(a5)
    1f48:	fc042783          	lw	a5,-64(s0)
    1f4c:	ff040693          	addi	a3,s0,-16
    1f50:	00f687b3          	add	a5,a3,a5
    1f54:	dec7c783          	lbu	a5,-532(a5)
    1f58:	40f707b3          	sub	a5,a4,a5
    1f5c:	0ff7f713          	andi	a4,a5,255
    1f60:	fc042783          	lw	a5,-64(s0)
    1f64:	ff040693          	addi	a3,s0,-16
    1f68:	00f687b3          	add	a5,a3,a5
    1f6c:	dee78c23          	sb	a4,-520(a5)
    1f70:	fc042783          	lw	a5,-64(s0)
    1f74:	ff040713          	addi	a4,s0,-16
    1f78:	00f707b3          	add	a5,a4,a5
    1f7c:	df07c703          	lbu	a4,-528(a5)
    1f80:	fc042783          	lw	a5,-64(s0)
    1f84:	ff040693          	addi	a3,s0,-16
    1f88:	00f687b3          	add	a5,a3,a5
    1f8c:	df47c783          	lbu	a5,-524(a5)
    1f90:	00f707b3          	add	a5,a4,a5
    1f94:	0ff7f713          	andi	a4,a5,255
    1f98:	fc042783          	lw	a5,-64(s0)
    1f9c:	ff040693          	addi	a3,s0,-16
    1fa0:	00f687b3          	add	a5,a3,a5
    1fa4:	dee78a23          	sb	a4,-524(a5)
    1fa8:	fc042783          	lw	a5,-64(s0)
    1fac:	00178793          	addi	a5,a5,1
    1fb0:	fcf42023          	sw	a5,-64(s0)
    1fb4:	fc042703          	lw	a4,-64(s0)
    1fb8:	00300793          	li	a5,3
    1fbc:	f6e7dee3          	bge	a5,a4,1f38 <main+0x720>
    1fc0:	1280006f          	j	20e8 <__stack_size+0xe8>
    1fc4:	fe244703          	lbu	a4,-30(s0)
    1fc8:	05300793          	li	a5,83
    1fcc:	10f71063          	bne	a4,a5,20cc <__stack_size+0xcc>
    1fd0:	fe444783          	lbu	a5,-28(s0)
    1fd4:	0027f793          	andi	a5,a5,2
    1fd8:	0e078a63          	beqz	a5,20cc <__stack_size+0xcc>
    1fdc:	0e00006f          	j	20bc <__stack_size+0xbc>
    1fe0:	fa042e23          	sw	zero,-68(s0)
    1fe4:	0380006f          	j	201c <__stack_size+0x1c>
    1fe8:	fbc42783          	lw	a5,-68(s0)
    1fec:	ff040713          	addi	a4,s0,-16
    1ff0:	00f707b3          	add	a5,a4,a5
    1ff4:	df47c783          	lbu	a5,-524(a5)
    1ff8:	fff78793          	addi	a5,a5,-1
    1ffc:	0ff7f713          	andi	a4,a5,255
    2000:	fbc42783          	lw	a5,-68(s0)
    2004:	ff040693          	addi	a3,s0,-16
    2008:	00f687b3          	add	a5,a3,a5
    200c:	dee78a23          	sb	a4,-524(a5)
    2010:	fbc42783          	lw	a5,-68(s0)
    2014:	00178793          	addi	a5,a5,1
    2018:	faf42e23          	sw	a5,-68(s0)
    201c:	fbc42703          	lw	a4,-68(s0)
    2020:	00300793          	li	a5,3
    2024:	fce7d2e3          	bge	a5,a4,1fe8 <main+0x7d0>
    2028:	fa042c23          	sw	zero,-72(s0)
    202c:	0840006f          	j	20b0 <__stack_size+0xb0>
    2030:	fb842783          	lw	a5,-72(s0)
    2034:	ff040713          	addi	a4,s0,-16
    2038:	00f707b3          	add	a5,a4,a5
    203c:	df47c783          	lbu	a5,-524(a5)
    2040:	00079a63          	bnez	a5,2054 <__stack_size+0x54>
    2044:	fe444783          	lbu	a5,-28(s0)
    2048:	ffd7f793          	andi	a5,a5,-3
    204c:	fef40223          	sb	a5,-28(s0)
    2050:	06c0006f          	j	20bc <__stack_size+0xbc>
    2054:	fb842783          	lw	a5,-72(s0)
    2058:	ff040713          	addi	a4,s0,-16
    205c:	00f707b3          	add	a5,a4,a5
    2060:	df47c783          	lbu	a5,-524(a5)
    2064:	fff78793          	addi	a5,a5,-1
    2068:	fb842703          	lw	a4,-72(s0)
    206c:	ff040693          	addi	a3,s0,-16
    2070:	00e68733          	add	a4,a3,a4
    2074:	df874703          	lbu	a4,-520(a4)
    2078:	00479793          	slli	a5,a5,0x4
    207c:	ff040693          	addi	a3,s0,-16
    2080:	00f687b3          	add	a5,a3,a5
    2084:	00e787b3          	add	a5,a5,a4
    2088:	dfc7c703          	lbu	a4,-516(a5)
    208c:	00100793          	li	a5,1
    2090:	00f71a63          	bne	a4,a5,20a4 <__stack_size+0xa4>
    2094:	fe444783          	lbu	a5,-28(s0)
    2098:	ffd7f793          	andi	a5,a5,-3
    209c:	fef40223          	sb	a5,-28(s0)
    20a0:	01c0006f          	j	20bc <__stack_size+0xbc>
    20a4:	fb842783          	lw	a5,-72(s0)
    20a8:	00178793          	addi	a5,a5,1
    20ac:	faf42c23          	sw	a5,-72(s0)
    20b0:	fb842703          	lw	a4,-72(s0)
    20b4:	00300793          	li	a5,3
    20b8:	f6e7dce3          	bge	a5,a4,2030 <__stack_size+0x30>
    20bc:	fe444783          	lbu	a5,-28(s0)
    20c0:	0027f793          	andi	a5,a5,2
    20c4:	f0079ee3          	bnez	a5,1fe0 <main+0x7c8>
    20c8:	0200006f          	j	20e8 <__stack_size+0xe8>
    20cc:	fe244703          	lbu	a4,-30(s0)
    20d0:	05100793          	li	a5,81
    20d4:	00f71a63          	bne	a4,a5,20e8 <__stack_size+0xe8>
    20d8:	fe0407a3          	sb	zero,-17(s0)
    20dc:	00000513          	li	a0,0
    20e0:	e0cff0ef          	jal	ra,16ec <ui_draw_scene>
    20e4:	33d0006f          	j	2c20 <__stack_size+0xc20>
    20e8:	fef44703          	lbu	a4,-17(s0)
    20ec:	00300793          	li	a5,3
    20f0:	86f71ae3          	bne	a4,a5,1964 <main+0x14c>
    20f4:	fe244703          	lbu	a4,-30(s0)
    20f8:	04100793          	li	a5,65
    20fc:	86f704e3          	beq	a4,a5,1964 <main+0x14c>
    2100:	fe244703          	lbu	a4,-30(s0)
    2104:	05700793          	li	a5,87
    2108:	84f70ee3          	beq	a4,a5,1964 <main+0x14c>
    210c:	fe244703          	lbu	a4,-30(s0)
    2110:	05300793          	li	a5,83
    2114:	84f708e3          	beq	a4,a5,1964 <main+0x14c>
    2118:	fe244703          	lbu	a4,-30(s0)
    211c:	04400793          	li	a5,68
    2120:	84f702e3          	beq	a4,a5,1964 <main+0x14c>
    2124:	fe244703          	lbu	a4,-30(s0)
    2128:	05100793          	li	a5,81
    212c:	82f71ce3          	bne	a4,a5,1964 <main+0x14c>
    2130:	fe0407a3          	sb	zero,-17(s0)
    2134:	00000513          	li	a0,0
    2138:	db4ff0ef          	jal	ra,16ec <ui_draw_scene>
    213c:	2e50006f          	j	2c20 <__stack_size+0xc20>
    2140:	fef44783          	lbu	a5,-17(s0)
    2144:	820780e3          	beqz	a5,1964 <main+0x14c>
    2148:	fef44703          	lbu	a4,-17(s0)
    214c:	00100793          	li	a5,1
    2150:	50f71863          	bne	a4,a5,2660 <__stack_size+0x660>
    2154:	fec44703          	lbu	a4,-20(s0)
    2158:	00f00793          	li	a5,15
    215c:	00e7ea63          	bltu	a5,a4,2170 <__stack_size+0x170>
    2160:	fec44783          	lbu	a5,-20(s0)
    2164:	00178793          	addi	a5,a5,1
    2168:	fef40623          	sb	a5,-20(s0)
    216c:	2b50006f          	j	2c20 <__stack_size+0xc20>
    2170:	fe040623          	sb	zero,-20(s0)
    2174:	400007b7          	lui	a5,0x40000
    2178:	00478793          	addi	a5,a5,4 # 40000004 <__freertos_irq_stack_top+0x2fffc004>
    217c:	0007a683          	lw	a3,0(a5)
    2180:	400007b7          	lui	a5,0x40000
    2184:	00478793          	addi	a5,a5,4 # 40000004 <__freertos_irq_stack_top+0x2fffc004>
    2188:	fffff737          	lui	a4,0xfffff
    218c:	fff70713          	addi	a4,a4,-1 # ffffefff <__freertos_irq_stack_top+0xefffafff>
    2190:	00e6f733          	and	a4,a3,a4
    2194:	00e7a023          	sw	a4,0(a5)
    2198:	fa040ba3          	sb	zero,-73(s0)
    219c:	fa040b23          	sb	zero,-74(s0)
    21a0:	fa042823          	sw	zero,-80(s0)
    21a4:	0f00006f          	j	2294 <__stack_size+0x294>
    21a8:	fa042623          	sw	zero,-84(s0)
    21ac:	0d00006f          	j	227c <__stack_size+0x27c>
    21b0:	fb042783          	lw	a5,-80(s0)
    21b4:	00479793          	slli	a5,a5,0x4
    21b8:	ff040713          	addi	a4,s0,-16
    21bc:	00f70733          	add	a4,a4,a5
    21c0:	fac42783          	lw	a5,-84(s0)
    21c4:	00f707b3          	add	a5,a4,a5
    21c8:	ebc78783          	lb	a5,-324(a5)
    21cc:	0af05263          	blez	a5,2270 <__stack_size+0x270>
    21d0:	fb042783          	lw	a5,-80(s0)
    21d4:	00479793          	slli	a5,a5,0x4
    21d8:	ff040713          	addi	a4,s0,-16
    21dc:	00f70733          	add	a4,a4,a5
    21e0:	fac42783          	lw	a5,-84(s0)
    21e4:	00f707b3          	add	a5,a4,a5
    21e8:	ebc78783          	lb	a5,-324(a5)
    21ec:	0ff7f793          	andi	a5,a5,255
    21f0:	00178793          	addi	a5,a5,1
    21f4:	0ff7f793          	andi	a5,a5,255
    21f8:	01879713          	slli	a4,a5,0x18
    21fc:	41875713          	srai	a4,a4,0x18
    2200:	fb042783          	lw	a5,-80(s0)
    2204:	00479793          	slli	a5,a5,0x4
    2208:	ff040693          	addi	a3,s0,-16
    220c:	00f686b3          	add	a3,a3,a5
    2210:	fac42783          	lw	a5,-84(s0)
    2214:	00f687b3          	add	a5,a3,a5
    2218:	eae78e23          	sb	a4,-324(a5)
    221c:	fb042783          	lw	a5,-80(s0)
    2220:	00479793          	slli	a5,a5,0x4
    2224:	ff040713          	addi	a4,s0,-16
    2228:	00f70733          	add	a4,a4,a5
    222c:	fac42783          	lw	a5,-84(s0)
    2230:	00f707b3          	add	a5,a4,a5
    2234:	ebc78783          	lb	a5,-324(a5)
    2238:	00078713          	mv	a4,a5
    223c:	fe744783          	lbu	a5,-25(s0)
    2240:	02e7d863          	bge	a5,a4,2270 <__stack_size+0x270>
    2244:	fb042783          	lw	a5,-80(s0)
    2248:	00479793          	slli	a5,a5,0x4
    224c:	ff040713          	addi	a4,s0,-16
    2250:	00f70733          	add	a4,a4,a5
    2254:	fac42783          	lw	a5,-84(s0)
    2258:	00f707b3          	add	a5,a4,a5
    225c:	ea078e23          	sb	zero,-324(a5)
    2260:	fac42783          	lw	a5,-84(s0)
    2264:	faf40ba3          	sb	a5,-73(s0)
    2268:	fb042783          	lw	a5,-80(s0)
    226c:	faf40b23          	sb	a5,-74(s0)
    2270:	fac42783          	lw	a5,-84(s0)
    2274:	00178793          	addi	a5,a5,1
    2278:	faf42623          	sw	a5,-84(s0)
    227c:	fac42703          	lw	a4,-84(s0)
    2280:	00f00793          	li	a5,15
    2284:	f2e7d6e3          	bge	a5,a4,21b0 <__stack_size+0x1b0>
    2288:	fb042783          	lw	a5,-80(s0)
    228c:	00178793          	addi	a5,a5,1
    2290:	faf42823          	sw	a5,-80(s0)
    2294:	fb042703          	lw	a4,-80(s0)
    2298:	00b00793          	li	a5,11
    229c:	f0e7d6e3          	bge	a5,a4,21a8 <__stack_size+0x1a8>
    22a0:	fe644703          	lbu	a4,-26(s0)
    22a4:	00100793          	li	a5,1
    22a8:	02f71663          	bne	a4,a5,22d4 <__stack_size+0x2d4>
    22ac:	feb40783          	lb	a5,-21(s0)
    22b0:	0ff7f793          	andi	a5,a5,255
    22b4:	fff78793          	addi	a5,a5,-1
    22b8:	0ff7f793          	andi	a5,a5,255
    22bc:	fef405a3          	sb	a5,-21(s0)
    22c0:	feb40783          	lb	a5,-21(s0)
    22c4:	0a07d463          	bgez	a5,236c <__stack_size+0x36c>
    22c8:	00f00793          	li	a5,15
    22cc:	fef405a3          	sb	a5,-21(s0)
    22d0:	09c0006f          	j	236c <__stack_size+0x36c>
    22d4:	fe644703          	lbu	a4,-26(s0)
    22d8:	00200793          	li	a5,2
    22dc:	02f71663          	bne	a4,a5,2308 <__stack_size+0x308>
    22e0:	fea40783          	lb	a5,-22(s0)
    22e4:	0ff7f793          	andi	a5,a5,255
    22e8:	00178793          	addi	a5,a5,1
    22ec:	0ff7f793          	andi	a5,a5,255
    22f0:	fef40523          	sb	a5,-22(s0)
    22f4:	fea40703          	lb	a4,-22(s0)
    22f8:	00b00793          	li	a5,11
    22fc:	06e7d863          	bge	a5,a4,236c <__stack_size+0x36c>
    2300:	fe040523          	sb	zero,-22(s0)
    2304:	0680006f          	j	236c <__stack_size+0x36c>
    2308:	fe644703          	lbu	a4,-26(s0)
    230c:	00300793          	li	a5,3
    2310:	02f71663          	bne	a4,a5,233c <__stack_size+0x33c>
    2314:	fea40783          	lb	a5,-22(s0)
    2318:	0ff7f793          	andi	a5,a5,255
    231c:	fff78793          	addi	a5,a5,-1
    2320:	0ff7f793          	andi	a5,a5,255
    2324:	fef40523          	sb	a5,-22(s0)
    2328:	fea40783          	lb	a5,-22(s0)
    232c:	0407d063          	bgez	a5,236c <__stack_size+0x36c>
    2330:	00b00793          	li	a5,11
    2334:	fef40523          	sb	a5,-22(s0)
    2338:	0340006f          	j	236c <__stack_size+0x36c>
    233c:	fe644703          	lbu	a4,-26(s0)
    2340:	00400793          	li	a5,4
    2344:	02f71463          	bne	a4,a5,236c <__stack_size+0x36c>
    2348:	feb40783          	lb	a5,-21(s0)
    234c:	0ff7f793          	andi	a5,a5,255
    2350:	00178793          	addi	a5,a5,1
    2354:	0ff7f793          	andi	a5,a5,255
    2358:	fef405a3          	sb	a5,-21(s0)
    235c:	feb40703          	lb	a4,-21(s0)
    2360:	00f00793          	li	a5,15
    2364:	00e7d463          	bge	a5,a4,236c <__stack_size+0x36c>
    2368:	fe0405a3          	sb	zero,-21(s0)
    236c:	fea40783          	lb	a5,-22(s0)
    2370:	feb40703          	lb	a4,-21(s0)
    2374:	00479793          	slli	a5,a5,0x4
    2378:	ff040693          	addi	a3,s0,-16
    237c:	00f687b3          	add	a5,a3,a5
    2380:	00e787b3          	add	a5,a5,a4
    2384:	ebc78783          	lb	a5,-324(a5)
    2388:	00f05c63          	blez	a5,23a0 <__stack_size+0x3a0>
    238c:	f39fe0ef          	jal	ra,12c4 <ui_draw_gameover>
    2390:	00000513          	li	a0,0
    2394:	b58ff0ef          	jal	ra,16ec <ui_draw_scene>
    2398:	fe0407a3          	sb	zero,-17(s0)
    239c:	0850006f          	j	2c20 <__stack_size+0xc20>
    23a0:	fea40783          	lb	a5,-22(s0)
    23a4:	feb40703          	lb	a4,-21(s0)
    23a8:	00479793          	slli	a5,a5,0x4
    23ac:	ff040693          	addi	a3,s0,-16
    23b0:	00f687b3          	add	a5,a3,a5
    23b4:	00e787b3          	add	a5,a5,a4
    23b8:	ebc78703          	lb	a4,-324(a5)
    23bc:	fff00793          	li	a5,-1
    23c0:	14f71e63          	bne	a4,a5,251c <__stack_size+0x51c>
    23c4:	400007b7          	lui	a5,0x40000
    23c8:	00478793          	addi	a5,a5,4 # 40000004 <__freertos_irq_stack_top+0x2fffc004>
    23cc:	0007a683          	lw	a3,0(a5)
    23d0:	400007b7          	lui	a5,0x40000
    23d4:	00478793          	addi	a5,a5,4 # 40000004 <__freertos_irq_stack_top+0x2fffc004>
    23d8:	00001737          	lui	a4,0x1
    23dc:	00e6e733          	or	a4,a3,a4
    23e0:	00e7a023          	sw	a4,0(a5)
    23e4:	fa042423          	sw	zero,-88(s0)
    23e8:	0200006f          	j	2408 <__stack_size+0x408>
    23ec:	00000613          	li	a2,0
    23f0:	08000593          	li	a1,128
    23f4:	00000513          	li	a0,0
    23f8:	d59fe0ef          	jal	ra,1150 <led_send_rgb>
    23fc:	fa842783          	lw	a5,-88(s0)
    2400:	00178793          	addi	a5,a5,1
    2404:	faf42423          	sw	a5,-88(s0)
    2408:	fe744783          	lbu	a5,-25(s0)
    240c:	ffe78793          	addi	a5,a5,-2
    2410:	fa842703          	lw	a4,-88(s0)
    2414:	fcf74ce3          	blt	a4,a5,23ec <__stack_size+0x3ec>
    2418:	fea40783          	lb	a5,-22(s0)
    241c:	feb40703          	lb	a4,-21(s0)
    2420:	00479793          	slli	a5,a5,0x4
    2424:	ff040693          	addi	a3,s0,-16
    2428:	00f687b3          	add	a5,a3,a5
    242c:	00e787b3          	add	a5,a5,a4
    2430:	00100713          	li	a4,1
    2434:	eae78e23          	sb	a4,-324(a5)
    2438:	fe744783          	lbu	a5,-25(s0)
    243c:	00178793          	addi	a5,a5,1
    2440:	fef403a3          	sb	a5,-25(s0)
    2444:	fed44703          	lbu	a4,-19(s0)
    2448:	00070793          	mv	a5,a4
    244c:	00379793          	slli	a5,a5,0x3
    2450:	40e787b3          	sub	a5,a5,a4
    2454:	00479793          	slli	a5,a5,0x4
    2458:	00e78733          	add	a4,a5,a4
    245c:	fe744783          	lbu	a5,-25(s0)
    2460:	0bf00693          	li	a3,191
    2464:	40f687b3          	sub	a5,a3,a5
    2468:	02f767b3          	rem	a5,a4,a5
    246c:	faf42223          	sw	a5,-92(s0)
    2470:	fa042023          	sw	zero,-96(s0)
    2474:	09c0006f          	j	2510 <__stack_size+0x510>
    2478:	f8042e23          	sw	zero,-100(s0)
    247c:	07c0006f          	j	24f8 <__stack_size+0x4f8>
    2480:	fa042783          	lw	a5,-96(s0)
    2484:	00479793          	slli	a5,a5,0x4
    2488:	ff040713          	addi	a4,s0,-16
    248c:	00f70733          	add	a4,a4,a5
    2490:	f9c42783          	lw	a5,-100(s0)
    2494:	00f707b3          	add	a5,a4,a5
    2498:	ebc78783          	lb	a5,-324(a5)
    249c:	04f04663          	bgtz	a5,24e8 <__stack_size+0x4e8>
    24a0:	fa442783          	lw	a5,-92(s0)
    24a4:	fff78793          	addi	a5,a5,-1
    24a8:	faf42223          	sw	a5,-92(s0)
    24ac:	fa442783          	lw	a5,-92(s0)
    24b0:	02079e63          	bnez	a5,24ec <__stack_size+0x4ec>
    24b4:	fa042783          	lw	a5,-96(s0)
    24b8:	00479793          	slli	a5,a5,0x4
    24bc:	ff040713          	addi	a4,s0,-16
    24c0:	00f70733          	add	a4,a4,a5
    24c4:	f9c42783          	lw	a5,-100(s0)
    24c8:	00f707b3          	add	a5,a4,a5
    24cc:	fff00713          	li	a4,-1
    24d0:	eae78e23          	sb	a4,-324(a5)
    24d4:	f9c42783          	lw	a5,-100(s0)
    24d8:	fef404a3          	sb	a5,-23(s0)
    24dc:	fa042783          	lw	a5,-96(s0)
    24e0:	fef40423          	sb	a5,-24(s0)
    24e4:	0200006f          	j	2504 <__stack_size+0x504>
    24e8:	00000013          	nop
    24ec:	f9c42783          	lw	a5,-100(s0)
    24f0:	00178793          	addi	a5,a5,1
    24f4:	f8f42e23          	sw	a5,-100(s0)
    24f8:	f9c42703          	lw	a4,-100(s0)
    24fc:	00f00793          	li	a5,15
    2500:	f8e7d0e3          	bge	a5,a4,2480 <__stack_size+0x480>
    2504:	fa042783          	lw	a5,-96(s0)
    2508:	00178793          	addi	a5,a5,1
    250c:	faf42023          	sw	a5,-96(s0)
    2510:	fa042703          	lw	a4,-96(s0)
    2514:	00b00793          	li	a5,11
    2518:	f6e7d0e3          	bge	a5,a4,2478 <__stack_size+0x478>
    251c:	fea40783          	lb	a5,-22(s0)
    2520:	feb40703          	lb	a4,-21(s0)
    2524:	00479793          	slli	a5,a5,0x4
    2528:	ff040693          	addi	a3,s0,-16
    252c:	00f687b3          	add	a5,a3,a5
    2530:	00e787b3          	add	a5,a5,a4
    2534:	00100713          	li	a4,1
    2538:	eae78e23          	sb	a4,-324(a5)
    253c:	fe944783          	lbu	a5,-23(s0)
    2540:	01079793          	slli	a5,a5,0x10
    2544:	0107d793          	srli	a5,a5,0x10
    2548:	00078713          	mv	a4,a5
    254c:	00070793          	mv	a5,a4
    2550:	00279793          	slli	a5,a5,0x2
    2554:	00e787b3          	add	a5,a5,a4
    2558:	00279793          	slli	a5,a5,0x2
    255c:	01079693          	slli	a3,a5,0x10
    2560:	0106d693          	srli	a3,a3,0x10
    2564:	fe844783          	lbu	a5,-24(s0)
    2568:	01079793          	slli	a5,a5,0x10
    256c:	0107d793          	srli	a5,a5,0x10
    2570:	00078713          	mv	a4,a5
    2574:	00070793          	mv	a5,a4
    2578:	00279793          	slli	a5,a5,0x2
    257c:	00e787b3          	add	a5,a5,a4
    2580:	00279793          	slli	a5,a5,0x2
    2584:	01079793          	slli	a5,a5,0x10
    2588:	0107d793          	srli	a5,a5,0x10
    258c:	00000613          	li	a2,0
    2590:	00078593          	mv	a1,a5
    2594:	00068513          	mv	a0,a3
    2598:	800ff0ef          	jal	ra,1598 <ui_draw_item>
    259c:	fb744783          	lbu	a5,-73(s0)
    25a0:	01079793          	slli	a5,a5,0x10
    25a4:	0107d793          	srli	a5,a5,0x10
    25a8:	00078713          	mv	a4,a5
    25ac:	00070793          	mv	a5,a4
    25b0:	00279793          	slli	a5,a5,0x2
    25b4:	00e787b3          	add	a5,a5,a4
    25b8:	00279793          	slli	a5,a5,0x2
    25bc:	01079693          	slli	a3,a5,0x10
    25c0:	0106d693          	srli	a3,a3,0x10
    25c4:	fb644783          	lbu	a5,-74(s0)
    25c8:	01079793          	slli	a5,a5,0x10
    25cc:	0107d793          	srli	a5,a5,0x10
    25d0:	00078713          	mv	a4,a5
    25d4:	00070793          	mv	a5,a4
    25d8:	00279793          	slli	a5,a5,0x2
    25dc:	00e787b3          	add	a5,a5,a4
    25e0:	00279793          	slli	a5,a5,0x2
    25e4:	01079793          	slli	a5,a5,0x10
    25e8:	0107d793          	srli	a5,a5,0x10
    25ec:	00200613          	li	a2,2
    25f0:	00078593          	mv	a1,a5
    25f4:	00068513          	mv	a0,a3
    25f8:	fa1fe0ef          	jal	ra,1598 <ui_draw_item>
    25fc:	feb40783          	lb	a5,-21(s0)
    2600:	01079793          	slli	a5,a5,0x10
    2604:	0107d793          	srli	a5,a5,0x10
    2608:	00078713          	mv	a4,a5
    260c:	00070793          	mv	a5,a4
    2610:	00279793          	slli	a5,a5,0x2
    2614:	00e787b3          	add	a5,a5,a4
    2618:	00279793          	slli	a5,a5,0x2
    261c:	01079693          	slli	a3,a5,0x10
    2620:	0106d693          	srli	a3,a3,0x10
    2624:	fea40783          	lb	a5,-22(s0)
    2628:	01079793          	slli	a5,a5,0x10
    262c:	0107d793          	srli	a5,a5,0x10
    2630:	00078713          	mv	a4,a5
    2634:	00070793          	mv	a5,a4
    2638:	00279793          	slli	a5,a5,0x2
    263c:	00e787b3          	add	a5,a5,a4
    2640:	00279793          	slli	a5,a5,0x2
    2644:	01079793          	slli	a5,a5,0x10
    2648:	0107d793          	srli	a5,a5,0x10
    264c:	00100613          	li	a2,1
    2650:	00078593          	mv	a1,a5
    2654:	00068513          	mv	a0,a3
    2658:	f41fe0ef          	jal	ra,1598 <ui_draw_item>
    265c:	b08ff06f          	j	1964 <main+0x14c>
    2660:	fef44703          	lbu	a4,-17(s0)
    2664:	00200793          	li	a5,2
    2668:	aef71e63          	bne	a4,a5,1964 <main+0x14c>
    266c:	fe544703          	lbu	a4,-27(s0)
    2670:	00900793          	li	a5,9
    2674:	00e7ea63          	bltu	a5,a4,2688 <__stack_size+0x688>
    2678:	fe544783          	lbu	a5,-27(s0)
    267c:	00178793          	addi	a5,a5,1
    2680:	fef402a3          	sb	a5,-27(s0)
    2684:	59c0006f          	j	2c20 <__stack_size+0xc20>
    2688:	fe0402a3          	sb	zero,-27(s0)
    268c:	00700793          	li	a5,7
    2690:	fef40223          	sb	a5,-28(s0)
    2694:	f8042c23          	sw	zero,-104(s0)
    2698:	1040006f          	j	279c <__stack_size+0x79c>
    269c:	f9842783          	lw	a5,-104(s0)
    26a0:	ff040713          	addi	a4,s0,-16
    26a4:	00f707b3          	add	a5,a4,a5
    26a8:	df87c783          	lbu	a5,-520(a5)
    26ac:	00079a63          	bnez	a5,26c0 <__stack_size+0x6c0>
    26b0:	fe444783          	lbu	a5,-28(s0)
    26b4:	ffb7f793          	andi	a5,a5,-5
    26b8:	fef40223          	sb	a5,-28(s0)
    26bc:	0ec0006f          	j	27a8 <__stack_size+0x7a8>
    26c0:	f9842783          	lw	a5,-104(s0)
    26c4:	ff040713          	addi	a4,s0,-16
    26c8:	00f707b3          	add	a5,a4,a5
    26cc:	df47c783          	lbu	a5,-524(a5)
    26d0:	00078693          	mv	a3,a5
    26d4:	f9842783          	lw	a5,-104(s0)
    26d8:	ff040713          	addi	a4,s0,-16
    26dc:	00f707b3          	add	a5,a4,a5
    26e0:	df87c783          	lbu	a5,-520(a5)
    26e4:	fff78713          	addi	a4,a5,-1
    26e8:	00469793          	slli	a5,a3,0x4
    26ec:	ff040693          	addi	a3,s0,-16
    26f0:	00f687b3          	add	a5,a3,a5
    26f4:	00e787b3          	add	a5,a5,a4
    26f8:	dfc7c703          	lbu	a4,-516(a5)
    26fc:	00100793          	li	a5,1
    2700:	00f71a63          	bne	a4,a5,2714 <__stack_size+0x714>
    2704:	fe444783          	lbu	a5,-28(s0)
    2708:	ffb7f793          	andi	a5,a5,-5
    270c:	fef40223          	sb	a5,-28(s0)
    2710:	0980006f          	j	27a8 <__stack_size+0x7a8>
    2714:	f9842783          	lw	a5,-104(s0)
    2718:	ff040713          	addi	a4,s0,-16
    271c:	00f707b3          	add	a5,a4,a5
    2720:	df87c703          	lbu	a4,-520(a5)
    2724:	00f00793          	li	a5,15
    2728:	00f71a63          	bne	a4,a5,273c <__stack_size+0x73c>
    272c:	fe444783          	lbu	a5,-28(s0)
    2730:	ffe7f793          	andi	a5,a5,-2
    2734:	fef40223          	sb	a5,-28(s0)
    2738:	0700006f          	j	27a8 <__stack_size+0x7a8>
    273c:	f9842783          	lw	a5,-104(s0)
    2740:	ff040713          	addi	a4,s0,-16
    2744:	00f707b3          	add	a5,a4,a5
    2748:	df47c783          	lbu	a5,-524(a5)
    274c:	00078693          	mv	a3,a5
    2750:	f9842783          	lw	a5,-104(s0)
    2754:	ff040713          	addi	a4,s0,-16
    2758:	00f707b3          	add	a5,a4,a5
    275c:	df87c783          	lbu	a5,-520(a5)
    2760:	00178713          	addi	a4,a5,1
    2764:	00469793          	slli	a5,a3,0x4
    2768:	ff040693          	addi	a3,s0,-16
    276c:	00f687b3          	add	a5,a3,a5
    2770:	00e787b3          	add	a5,a5,a4
    2774:	dfc7c703          	lbu	a4,-516(a5)
    2778:	00100793          	li	a5,1
    277c:	00f71a63          	bne	a4,a5,2790 <__stack_size+0x790>
    2780:	fe444783          	lbu	a5,-28(s0)
    2784:	ffe7f793          	andi	a5,a5,-2
    2788:	fef40223          	sb	a5,-28(s0)
    278c:	01c0006f          	j	27a8 <__stack_size+0x7a8>
    2790:	f9842783          	lw	a5,-104(s0)
    2794:	00178793          	addi	a5,a5,1
    2798:	f8f42c23          	sw	a5,-104(s0)
    279c:	f9842703          	lw	a4,-104(s0)
    27a0:	00300793          	li	a5,3
    27a4:	eee7dce3          	bge	a5,a4,269c <__stack_size+0x69c>
    27a8:	f8042a23          	sw	zero,-108(s0)
    27ac:	0840006f          	j	2830 <__stack_size+0x830>
    27b0:	f9442783          	lw	a5,-108(s0)
    27b4:	ff040713          	addi	a4,s0,-16
    27b8:	00f707b3          	add	a5,a4,a5
    27bc:	df47c783          	lbu	a5,-524(a5)
    27c0:	00079a63          	bnez	a5,27d4 <__stack_size+0x7d4>
    27c4:	fe444783          	lbu	a5,-28(s0)
    27c8:	ffd7f793          	andi	a5,a5,-3
    27cc:	fef40223          	sb	a5,-28(s0)
    27d0:	06c0006f          	j	283c <__stack_size+0x83c>
    27d4:	f9442783          	lw	a5,-108(s0)
    27d8:	ff040713          	addi	a4,s0,-16
    27dc:	00f707b3          	add	a5,a4,a5
    27e0:	df47c783          	lbu	a5,-524(a5)
    27e4:	fff78793          	addi	a5,a5,-1
    27e8:	f9442703          	lw	a4,-108(s0)
    27ec:	ff040693          	addi	a3,s0,-16
    27f0:	00e68733          	add	a4,a3,a4
    27f4:	df874703          	lbu	a4,-520(a4) # df8 <lcd_draw_char+0x20c>
    27f8:	00479793          	slli	a5,a5,0x4
    27fc:	ff040693          	addi	a3,s0,-16
    2800:	00f687b3          	add	a5,a3,a5
    2804:	00e787b3          	add	a5,a5,a4
    2808:	dfc7c703          	lbu	a4,-516(a5)
    280c:	00100793          	li	a5,1
    2810:	00f71a63          	bne	a4,a5,2824 <__stack_size+0x824>
    2814:	fe444783          	lbu	a5,-28(s0)
    2818:	ffd7f793          	andi	a5,a5,-3
    281c:	fef40223          	sb	a5,-28(s0)
    2820:	01c0006f          	j	283c <__stack_size+0x83c>
    2824:	f9442783          	lw	a5,-108(s0)
    2828:	00178793          	addi	a5,a5,1
    282c:	f8f42a23          	sw	a5,-108(s0)
    2830:	f9442703          	lw	a4,-108(s0)
    2834:	00300793          	li	a5,3
    2838:	f6e7dce3          	bge	a5,a4,27b0 <__stack_size+0x7b0>
    283c:	fe444783          	lbu	a5,-28(s0)
    2840:	0027f793          	andi	a5,a5,2
    2844:	04078863          	beqz	a5,2894 <__stack_size+0x894>
    2848:	f8042823          	sw	zero,-112(s0)
    284c:	0380006f          	j	2884 <__stack_size+0x884>
    2850:	f9042783          	lw	a5,-112(s0)
    2854:	ff040713          	addi	a4,s0,-16
    2858:	00f707b3          	add	a5,a4,a5
    285c:	df47c783          	lbu	a5,-524(a5)
    2860:	fff78793          	addi	a5,a5,-1
    2864:	0ff7f713          	andi	a4,a5,255
    2868:	f9042783          	lw	a5,-112(s0)
    286c:	ff040693          	addi	a3,s0,-16
    2870:	00f687b3          	add	a5,a3,a5
    2874:	dee78a23          	sb	a4,-524(a5)
    2878:	f9042783          	lw	a5,-112(s0)
    287c:	00178793          	addi	a5,a5,1
    2880:	f8f42823          	sw	a5,-112(s0)
    2884:	f9042703          	lw	a4,-112(s0)
    2888:	00300793          	li	a5,3
    288c:	fce7d2e3          	bge	a5,a4,2850 <__stack_size+0x850>
    2890:	1c80006f          	j	2a58 <__stack_size+0xa58>
    2894:	f8042623          	sw	zero,-116(s0)
    2898:	0500006f          	j	28e8 <__stack_size+0x8e8>
    289c:	f8c42783          	lw	a5,-116(s0)
    28a0:	ff040713          	addi	a4,s0,-16
    28a4:	00f707b3          	add	a5,a4,a5
    28a8:	df47c783          	lbu	a5,-524(a5)
    28ac:	00078693          	mv	a3,a5
    28b0:	f8c42783          	lw	a5,-116(s0)
    28b4:	ff040713          	addi	a4,s0,-16
    28b8:	00f707b3          	add	a5,a4,a5
    28bc:	df87c783          	lbu	a5,-520(a5)
    28c0:	00078713          	mv	a4,a5
    28c4:	00469793          	slli	a5,a3,0x4
    28c8:	ff040693          	addi	a3,s0,-16
    28cc:	00f687b3          	add	a5,a3,a5
    28d0:	00e787b3          	add	a5,a5,a4
    28d4:	00100713          	li	a4,1
    28d8:	dee78e23          	sb	a4,-516(a5)
    28dc:	f8c42783          	lw	a5,-116(s0)
    28e0:	00178793          	addi	a5,a5,1
    28e4:	f8f42623          	sw	a5,-116(s0)
    28e8:	f8c42703          	lw	a4,-116(s0)
    28ec:	00300793          	li	a5,3
    28f0:	fae7d6e3          	bge	a5,a4,289c <__stack_size+0x89c>
    28f4:	00700793          	li	a5,7
    28f8:	def40423          	sb	a5,-536(s0)
    28fc:	00600793          	li	a5,6
    2900:	def404a3          	sb	a5,-535(s0)
    2904:	00700793          	li	a5,7
    2908:	def40523          	sb	a5,-534(s0)
    290c:	00800793          	li	a5,8
    2910:	def405a3          	sb	a5,-533(s0)
    2914:	00b00793          	li	a5,11
    2918:	def40223          	sb	a5,-540(s0)
    291c:	00a00793          	li	a5,10
    2920:	def402a3          	sb	a5,-539(s0)
    2924:	00a00793          	li	a5,10
    2928:	def40323          	sb	a5,-538(s0)
    292c:	00a00793          	li	a5,10
    2930:	def403a3          	sb	a5,-537(s0)
    2934:	f8042423          	sw	zero,-120(s0)
    2938:	1140006f          	j	2a4c <__stack_size+0xa4c>
    293c:	f8042223          	sw	zero,-124(s0)
    2940:	0ec0006f          	j	2a2c <__stack_size+0xa2c>
    2944:	f8842783          	lw	a5,-120(s0)
    2948:	00479793          	slli	a5,a5,0x4
    294c:	ff040713          	addi	a4,s0,-16
    2950:	00f70733          	add	a4,a4,a5
    2954:	f8442783          	lw	a5,-124(s0)
    2958:	00f707b3          	add	a5,a4,a5
    295c:	dfc7c703          	lbu	a4,-516(a5)
    2960:	00100793          	li	a5,1
    2964:	0cf71c63          	bne	a4,a5,2a3c <__stack_size+0xa3c>
    2968:	f8442703          	lw	a4,-124(s0)
    296c:	00f00793          	li	a5,15
    2970:	0af71863          	bne	a4,a5,2a20 <__stack_size+0xa20>
    2974:	f8842783          	lw	a5,-120(s0)
    2978:	f8f42023          	sw	a5,-128(s0)
    297c:	0980006f          	j	2a14 <__stack_size+0xa14>
    2980:	f6042e23          	sw	zero,-132(s0)
    2984:	0780006f          	j	29fc <__stack_size+0x9fc>
    2988:	f8042703          	lw	a4,-128(s0)
    298c:	00b00793          	li	a5,11
    2990:	02f71263          	bne	a4,a5,29b4 <__stack_size+0x9b4>
    2994:	f8042783          	lw	a5,-128(s0)
    2998:	00479793          	slli	a5,a5,0x4
    299c:	ff040713          	addi	a4,s0,-16
    29a0:	00f70733          	add	a4,a4,a5
    29a4:	f7c42783          	lw	a5,-132(s0)
    29a8:	00f707b3          	add	a5,a4,a5
    29ac:	de078e23          	sb	zero,-516(a5)
    29b0:	0400006f          	j	29f0 <__stack_size+0x9f0>
    29b4:	f8042783          	lw	a5,-128(s0)
    29b8:	00178793          	addi	a5,a5,1
    29bc:	00479793          	slli	a5,a5,0x4
    29c0:	ff040713          	addi	a4,s0,-16
    29c4:	00f70733          	add	a4,a4,a5
    29c8:	f7c42783          	lw	a5,-132(s0)
    29cc:	00f707b3          	add	a5,a4,a5
    29d0:	dfc7c703          	lbu	a4,-516(a5)
    29d4:	f8042783          	lw	a5,-128(s0)
    29d8:	00479793          	slli	a5,a5,0x4
    29dc:	ff040693          	addi	a3,s0,-16
    29e0:	00f686b3          	add	a3,a3,a5
    29e4:	f7c42783          	lw	a5,-132(s0)
    29e8:	00f687b3          	add	a5,a3,a5
    29ec:	dee78e23          	sb	a4,-516(a5)
    29f0:	f7c42783          	lw	a5,-132(s0)
    29f4:	00178793          	addi	a5,a5,1
    29f8:	f6f42e23          	sw	a5,-132(s0)
    29fc:	f7c42703          	lw	a4,-132(s0)
    2a00:	00f00793          	li	a5,15
    2a04:	f8e7d2e3          	bge	a5,a4,2988 <__stack_size+0x988>
    2a08:	f8042783          	lw	a5,-128(s0)
    2a0c:	00178793          	addi	a5,a5,1
    2a10:	f8f42023          	sw	a5,-128(s0)
    2a14:	f8042703          	lw	a4,-128(s0)
    2a18:	00b00793          	li	a5,11
    2a1c:	f6e7d2e3          	bge	a5,a4,2980 <__stack_size+0x980>
    2a20:	f8442783          	lw	a5,-124(s0)
    2a24:	00178793          	addi	a5,a5,1
    2a28:	f8f42223          	sw	a5,-124(s0)
    2a2c:	f8442703          	lw	a4,-124(s0)
    2a30:	00f00793          	li	a5,15
    2a34:	f0e7d8e3          	bge	a5,a4,2944 <__stack_size+0x944>
    2a38:	0080006f          	j	2a40 <__stack_size+0xa40>
    2a3c:	00000013          	nop
    2a40:	f8842783          	lw	a5,-120(s0)
    2a44:	00178793          	addi	a5,a5,1
    2a48:	f8f42423          	sw	a5,-120(s0)
    2a4c:	f8842703          	lw	a4,-120(s0)
    2a50:	00b00793          	li	a5,11
    2a54:	eee7d4e3          	bge	a5,a4,293c <__stack_size+0x93c>
    2a58:	f6042c23          	sw	zero,-136(s0)
    2a5c:	11c0006f          	j	2b78 <__stack_size+0xb78>
    2a60:	f6042a23          	sw	zero,-140(s0)
    2a64:	0fc0006f          	j	2b60 <__stack_size+0xb60>
    2a68:	f7842783          	lw	a5,-136(s0)
    2a6c:	00479793          	slli	a5,a5,0x4
    2a70:	ff040713          	addi	a4,s0,-16
    2a74:	00f70733          	add	a4,a4,a5
    2a78:	f7442783          	lw	a5,-140(s0)
    2a7c:	00f707b3          	add	a5,a4,a5
    2a80:	dfc7c783          	lbu	a5,-516(a5)
    2a84:	06079663          	bnez	a5,2af0 <__stack_size+0xaf0>
    2a88:	f7442783          	lw	a5,-140(s0)
    2a8c:	01079793          	slli	a5,a5,0x10
    2a90:	0107d793          	srli	a5,a5,0x10
    2a94:	00078713          	mv	a4,a5
    2a98:	00070793          	mv	a5,a4
    2a9c:	00279793          	slli	a5,a5,0x2
    2aa0:	00e787b3          	add	a5,a5,a4
    2aa4:	00279793          	slli	a5,a5,0x2
    2aa8:	01079513          	slli	a0,a5,0x10
    2aac:	01055513          	srli	a0,a0,0x10
    2ab0:	f7842783          	lw	a5,-136(s0)
    2ab4:	01079793          	slli	a5,a5,0x10
    2ab8:	0107d793          	srli	a5,a5,0x10
    2abc:	00078713          	mv	a4,a5
    2ac0:	00070793          	mv	a5,a4
    2ac4:	00279793          	slli	a5,a5,0x2
    2ac8:	00e787b3          	add	a5,a5,a4
    2acc:	00279793          	slli	a5,a5,0x2
    2ad0:	01079593          	slli	a1,a5,0x10
    2ad4:	0105d593          	srli	a1,a1,0x10
    2ad8:	000107b7          	lui	a5,0x10
    2adc:	fff78713          	addi	a4,a5,-1 # ffff <_data_lma+0xca67>
    2ae0:	01400693          	li	a3,20
    2ae4:	01400613          	li	a2,20
    2ae8:	fe9fd0ef          	jal	ra,ad0 <lcd_draw_rect>
    2aec:	0680006f          	j	2b54 <__stack_size+0xb54>
    2af0:	f7442783          	lw	a5,-140(s0)
    2af4:	01079793          	slli	a5,a5,0x10
    2af8:	0107d793          	srli	a5,a5,0x10
    2afc:	00078713          	mv	a4,a5
    2b00:	00070793          	mv	a5,a4
    2b04:	00279793          	slli	a5,a5,0x2
    2b08:	00e787b3          	add	a5,a5,a4
    2b0c:	00279793          	slli	a5,a5,0x2
    2b10:	01079513          	slli	a0,a5,0x10
    2b14:	01055513          	srli	a0,a0,0x10
    2b18:	f7842783          	lw	a5,-136(s0)
    2b1c:	01079793          	slli	a5,a5,0x10
    2b20:	0107d793          	srli	a5,a5,0x10
    2b24:	00078713          	mv	a4,a5
    2b28:	00070793          	mv	a5,a4
    2b2c:	00279793          	slli	a5,a5,0x2
    2b30:	00e787b3          	add	a5,a5,a4
    2b34:	00279793          	slli	a5,a5,0x2
    2b38:	01079593          	slli	a1,a5,0x10
    2b3c:	0105d593          	srli	a1,a1,0x10
    2b40:	000107b7          	lui	a5,0x10
    2b44:	80078713          	addi	a4,a5,-2048 # f800 <_data_lma+0xc268>
    2b48:	01400693          	li	a3,20
    2b4c:	01400613          	li	a2,20
    2b50:	f81fd0ef          	jal	ra,ad0 <lcd_draw_rect>
    2b54:	f7442783          	lw	a5,-140(s0)
    2b58:	00178793          	addi	a5,a5,1
    2b5c:	f6f42a23          	sw	a5,-140(s0)
    2b60:	f7442703          	lw	a4,-140(s0)
    2b64:	00f00793          	li	a5,15
    2b68:	f0e7d0e3          	bge	a5,a4,2a68 <__stack_size+0xa68>
    2b6c:	f7842783          	lw	a5,-136(s0)
    2b70:	00178793          	addi	a5,a5,1
    2b74:	f6f42c23          	sw	a5,-136(s0)
    2b78:	f7842703          	lw	a4,-136(s0)
    2b7c:	00b00793          	li	a5,11
    2b80:	eee7d0e3          	bge	a5,a4,2a60 <__stack_size+0xa60>
    2b84:	f6042823          	sw	zero,-144(s0)
    2b88:	08c0006f          	j	2c14 <__stack_size+0xc14>
    2b8c:	f7042783          	lw	a5,-144(s0)
    2b90:	ff040713          	addi	a4,s0,-16
    2b94:	00f707b3          	add	a5,a4,a5
    2b98:	df87c783          	lbu	a5,-520(a5)
    2b9c:	01079793          	slli	a5,a5,0x10
    2ba0:	0107d793          	srli	a5,a5,0x10
    2ba4:	00078713          	mv	a4,a5
    2ba8:	00070793          	mv	a5,a4
    2bac:	00279793          	slli	a5,a5,0x2
    2bb0:	00e787b3          	add	a5,a5,a4
    2bb4:	00279793          	slli	a5,a5,0x2
    2bb8:	01079513          	slli	a0,a5,0x10
    2bbc:	01055513          	srli	a0,a0,0x10
    2bc0:	f7042783          	lw	a5,-144(s0)
    2bc4:	ff040713          	addi	a4,s0,-16
    2bc8:	00f707b3          	add	a5,a4,a5
    2bcc:	df47c783          	lbu	a5,-524(a5)
    2bd0:	01079793          	slli	a5,a5,0x10
    2bd4:	0107d793          	srli	a5,a5,0x10
    2bd8:	00078713          	mv	a4,a5
    2bdc:	00070793          	mv	a5,a4
    2be0:	00279793          	slli	a5,a5,0x2
    2be4:	00e787b3          	add	a5,a5,a4
    2be8:	00279793          	slli	a5,a5,0x2
    2bec:	01079793          	slli	a5,a5,0x10
    2bf0:	0107d793          	srli	a5,a5,0x10
    2bf4:	7e000713          	li	a4,2016
    2bf8:	01400693          	li	a3,20
    2bfc:	01400613          	li	a2,20
    2c00:	00078593          	mv	a1,a5
    2c04:	ecdfd0ef          	jal	ra,ad0 <lcd_draw_rect>
    2c08:	f7042783          	lw	a5,-144(s0)
    2c0c:	00178793          	addi	a5,a5,1
    2c10:	f6f42823          	sw	a5,-144(s0)
    2c14:	f7042703          	lw	a4,-144(s0)
    2c18:	00300793          	li	a5,3
    2c1c:	f6e7d8e3          	bge	a5,a4,2b8c <__stack_size+0xb8c>
    2c20:	d45fe06f          	j	1964 <main+0x14c>

00002c24 <trap_handler>:
    2c24:	fe010113          	addi	sp,sp,-32
    2c28:	00112e23          	sw	ra,28(sp)
    2c2c:	00812c23          	sw	s0,24(sp)
    2c30:	02010413          	addi	s0,sp,32
    2c34:	fea42623          	sw	a0,-20(s0)
    2c38:	00000097          	auipc	ra,0x0
    2c3c:	000000e7          	jalr	zero # 0 <_start>
    2c40:	00000013          	nop
    2c44:	01c12083          	lw	ra,28(sp)
    2c48:	01812403          	lw	s0,24(sp)
    2c4c:	02010113          	addi	sp,sp,32
    2c50:	00008067          	ret

00002c54 <_init>:
    2c54:	ff010113          	addi	sp,sp,-16
    2c58:	00812623          	sw	s0,12(sp)
    2c5c:	01010413          	addi	s0,sp,16
    2c60:	000007b7          	lui	a5,0x0
    2c64:	06c78793          	addi	a5,a5,108 # 6c <trap_entry>
    2c68:	30579073          	csrw	mtvec,a5
    2c6c:	000027b7          	lui	a5,0x2
    2c70:	88878793          	addi	a5,a5,-1912 # 1888 <main+0x70>
    2c74:	30079073          	csrw	mstatus,a5
    2c78:	00000013          	nop
    2c7c:	00c12403          	lw	s0,12(sp)
    2c80:	01010113          	addi	sp,sp,16
    2c84:	00008067          	ret

00002c88 <get_cycle_value>:
    2c88:	fd010113          	addi	sp,sp,-48
    2c8c:	02812623          	sw	s0,44(sp)
    2c90:	03010413          	addi	s0,sp,48
    2c94:	c0002773          	rdcycle	a4
    2c98:	fee42623          	sw	a4,-20(s0)
    2c9c:	fec42703          	lw	a4,-20(s0)
    2ca0:	fee42023          	sw	a4,-32(s0)
    2ca4:	fe042223          	sw	zero,-28(s0)
    2ca8:	c8002773          	rdcycleh	a4
    2cac:	fce42e23          	sw	a4,-36(s0)
    2cb0:	fdc42703          	lw	a4,-36(s0)
    2cb4:	00070793          	mv	a5,a4
    2cb8:	00000813          	li	a6,0
    2cbc:	00079613          	slli	a2,a5,0x0
    2cc0:	00000593          	li	a1,0
    2cc4:	fe042683          	lw	a3,-32(s0)
    2cc8:	fe442703          	lw	a4,-28(s0)
    2ccc:	00b687b3          	add	a5,a3,a1
    2cd0:	00078513          	mv	a0,a5
    2cd4:	00d53533          	sltu	a0,a0,a3
    2cd8:	00c70833          	add	a6,a4,a2
    2cdc:	01050733          	add	a4,a0,a6
    2ce0:	00070813          	mv	a6,a4
    2ce4:	fef42023          	sw	a5,-32(s0)
    2ce8:	ff042223          	sw	a6,-28(s0)
    2cec:	fe042783          	lw	a5,-32(s0)
    2cf0:	fe442803          	lw	a6,-28(s0)
    2cf4:	00078513          	mv	a0,a5
    2cf8:	00080593          	mv	a1,a6
    2cfc:	02c12403          	lw	s0,44(sp)
    2d00:	03010113          	addi	sp,sp,48
    2d04:	00008067          	ret

00002d08 <busy_wait>:
    2d08:	fd010113          	addi	sp,sp,-48
    2d0c:	02112623          	sw	ra,44(sp)
    2d10:	02812423          	sw	s0,40(sp)
    2d14:	03212223          	sw	s2,36(sp)
    2d18:	03312023          	sw	s3,32(sp)
    2d1c:	03010413          	addi	s0,sp,48
    2d20:	fca42e23          	sw	a0,-36(s0)
    2d24:	fdc42703          	lw	a4,-36(s0)
    2d28:	03200793          	li	a5,50
    2d2c:	02f707b3          	mul	a5,a4,a5
    2d30:	fef42623          	sw	a5,-20(s0)
    2d34:	f55ff0ef          	jal	ra,2c88 <get_cycle_value>
    2d38:	fea42023          	sw	a0,-32(s0)
    2d3c:	feb42223          	sw	a1,-28(s0)
    2d40:	00000013          	nop
    2d44:	f45ff0ef          	jal	ra,2c88 <get_cycle_value>
    2d48:	00058613          	mv	a2,a1
    2d4c:	00050593          	mv	a1,a0
    2d50:	fec42783          	lw	a5,-20(s0)
    2d54:	00078913          	mv	s2,a5
    2d58:	00000993          	li	s3,0
    2d5c:	fe042683          	lw	a3,-32(s0)
    2d60:	fe442703          	lw	a4,-28(s0)
    2d64:	00d907b3          	add	a5,s2,a3
    2d68:	00078513          	mv	a0,a5
    2d6c:	01253533          	sltu	a0,a0,s2
    2d70:	00e98833          	add	a6,s3,a4
    2d74:	01050733          	add	a4,a0,a6
    2d78:	00070813          	mv	a6,a4
    2d7c:	00080693          	mv	a3,a6
    2d80:	00060713          	mv	a4,a2
    2d84:	fcd760e3          	bltu	a4,a3,2d44 <busy_wait+0x3c>
    2d88:	00080693          	mv	a3,a6
    2d8c:	00060713          	mv	a4,a2
    2d90:	00e69863          	bne	a3,a4,2da0 <busy_wait+0x98>
    2d94:	00078713          	mv	a4,a5
    2d98:	00058793          	mv	a5,a1
    2d9c:	fae7e4e3          	bltu	a5,a4,2d44 <busy_wait+0x3c>
    2da0:	00000013          	nop
    2da4:	02c12083          	lw	ra,44(sp)
    2da8:	02812403          	lw	s0,40(sp)
    2dac:	02412903          	lw	s2,36(sp)
    2db0:	02012983          	lw	s3,32(sp)
    2db4:	03010113          	addi	sp,sp,48
    2db8:	00008067          	ret

00002dbc <xputc>:
    2dbc:	fe010113          	addi	sp,sp,-32
    2dc0:	00112e23          	sw	ra,28(sp)
    2dc4:	00812c23          	sw	s0,24(sp)
    2dc8:	02010413          	addi	s0,sp,32
    2dcc:	00050793          	mv	a5,a0
    2dd0:	fef407a3          	sb	a5,-17(s0)
    2dd4:	8081a783          	lw	a5,-2040(gp) # 10000528 <__bss_start>
    2dd8:	00078e63          	beqz	a5,2df4 <xputc+0x38>
    2ddc:	8081a783          	lw	a5,-2040(gp) # 10000528 <__bss_start>
    2de0:	00178693          	addi	a3,a5,1
    2de4:	80d1a423          	sw	a3,-2040(gp) # 10000528 <__bss_start>
    2de8:	fef44703          	lbu	a4,-17(s0)
    2dec:	00e78023          	sb	a4,0(a5)
    2df0:	01c0006f          	j	2e0c <xputc+0x50>
    2df4:	80c1a783          	lw	a5,-2036(gp) # 1000052c <xfunc_out>
    2df8:	00078a63          	beqz	a5,2e0c <xputc+0x50>
    2dfc:	80c1a703          	lw	a4,-2036(gp) # 1000052c <xfunc_out>
    2e00:	fef44783          	lbu	a5,-17(s0)
    2e04:	00078513          	mv	a0,a5
    2e08:	000700e7          	jalr	a4
    2e0c:	01c12083          	lw	ra,28(sp)
    2e10:	01812403          	lw	s0,24(sp)
    2e14:	02010113          	addi	sp,sp,32
    2e18:	00008067          	ret

00002e1c <xputs>:
    2e1c:	fe010113          	addi	sp,sp,-32
    2e20:	00112e23          	sw	ra,28(sp)
    2e24:	00812c23          	sw	s0,24(sp)
    2e28:	02010413          	addi	s0,sp,32
    2e2c:	fea42623          	sw	a0,-20(s0)
    2e30:	01c0006f          	j	2e4c <xputs+0x30>
    2e34:	fec42783          	lw	a5,-20(s0)
    2e38:	00178713          	addi	a4,a5,1
    2e3c:	fee42623          	sw	a4,-20(s0)
    2e40:	0007c783          	lbu	a5,0(a5)
    2e44:	00078513          	mv	a0,a5
    2e48:	f75ff0ef          	jal	ra,2dbc <xputc>
    2e4c:	fec42783          	lw	a5,-20(s0)
    2e50:	0007c783          	lbu	a5,0(a5)
    2e54:	fe0790e3          	bnez	a5,2e34 <xputs+0x18>
    2e58:	00000013          	nop
    2e5c:	01c12083          	lw	ra,28(sp)
    2e60:	01812403          	lw	s0,24(sp)
    2e64:	02010113          	addi	sp,sp,32
    2e68:	00008067          	ret

00002e6c <xvprintf>:
    2e6c:	fb010113          	addi	sp,sp,-80
    2e70:	04112623          	sw	ra,76(sp)
    2e74:	04812423          	sw	s0,72(sp)
    2e78:	05010413          	addi	s0,sp,80
    2e7c:	faa42e23          	sw	a0,-68(s0)
    2e80:	fab42c23          	sw	a1,-72(s0)
    2e84:	fbc42783          	lw	a5,-68(s0)
    2e88:	00178713          	addi	a4,a5,1
    2e8c:	fae42e23          	sw	a4,-68(s0)
    2e90:	0007c783          	lbu	a5,0(a5)
    2e94:	fcf40ba3          	sb	a5,-41(s0)
    2e98:	fd744783          	lbu	a5,-41(s0)
    2e9c:	42078e63          	beqz	a5,32d8 <xvprintf+0x46c>
    2ea0:	fd744703          	lbu	a4,-41(s0)
    2ea4:	02500793          	li	a5,37
    2ea8:	00f70a63          	beq	a4,a5,2ebc <xvprintf+0x50>
    2eac:	fd744783          	lbu	a5,-41(s0)
    2eb0:	00078513          	mv	a0,a5
    2eb4:	f09ff0ef          	jal	ra,2dbc <xputc>
    2eb8:	41c0006f          	j	32d4 <xvprintf+0x468>
    2ebc:	fc042e23          	sw	zero,-36(s0)
    2ec0:	fbc42783          	lw	a5,-68(s0)
    2ec4:	00178713          	addi	a4,a5,1
    2ec8:	fae42e23          	sw	a4,-68(s0)
    2ecc:	0007c783          	lbu	a5,0(a5)
    2ed0:	fcf40ba3          	sb	a5,-41(s0)
    2ed4:	fd744703          	lbu	a4,-41(s0)
    2ed8:	03000793          	li	a5,48
    2edc:	02f71263          	bne	a4,a5,2f00 <xvprintf+0x94>
    2ee0:	00100793          	li	a5,1
    2ee4:	fcf42e23          	sw	a5,-36(s0)
    2ee8:	fbc42783          	lw	a5,-68(s0)
    2eec:	00178713          	addi	a4,a5,1
    2ef0:	fae42e23          	sw	a4,-68(s0)
    2ef4:	0007c783          	lbu	a5,0(a5)
    2ef8:	fcf40ba3          	sb	a5,-41(s0)
    2efc:	02c0006f          	j	2f28 <xvprintf+0xbc>
    2f00:	fd744703          	lbu	a4,-41(s0)
    2f04:	02d00793          	li	a5,45
    2f08:	02f71063          	bne	a4,a5,2f28 <xvprintf+0xbc>
    2f0c:	00200793          	li	a5,2
    2f10:	fcf42e23          	sw	a5,-36(s0)
    2f14:	fbc42783          	lw	a5,-68(s0)
    2f18:	00178713          	addi	a4,a5,1
    2f1c:	fae42e23          	sw	a4,-68(s0)
    2f20:	0007c783          	lbu	a5,0(a5)
    2f24:	fcf40ba3          	sb	a5,-41(s0)
    2f28:	fe042023          	sw	zero,-32(s0)
    2f2c:	0400006f          	j	2f6c <xvprintf+0x100>
    2f30:	fe042703          	lw	a4,-32(s0)
    2f34:	00070793          	mv	a5,a4
    2f38:	00279793          	slli	a5,a5,0x2
    2f3c:	00e787b3          	add	a5,a5,a4
    2f40:	00179793          	slli	a5,a5,0x1
    2f44:	00078713          	mv	a4,a5
    2f48:	fd744783          	lbu	a5,-41(s0)
    2f4c:	00f707b3          	add	a5,a4,a5
    2f50:	fd078793          	addi	a5,a5,-48
    2f54:	fef42023          	sw	a5,-32(s0)
    2f58:	fbc42783          	lw	a5,-68(s0)
    2f5c:	00178713          	addi	a4,a5,1
    2f60:	fae42e23          	sw	a4,-68(s0)
    2f64:	0007c783          	lbu	a5,0(a5)
    2f68:	fcf40ba3          	sb	a5,-41(s0)
    2f6c:	fd744703          	lbu	a4,-41(s0)
    2f70:	02f00793          	li	a5,47
    2f74:	00e7f863          	bgeu	a5,a4,2f84 <xvprintf+0x118>
    2f78:	fd744703          	lbu	a4,-41(s0)
    2f7c:	03900793          	li	a5,57
    2f80:	fae7f8e3          	bgeu	a5,a4,2f30 <xvprintf+0xc4>
    2f84:	fd744703          	lbu	a4,-41(s0)
    2f88:	06c00793          	li	a5,108
    2f8c:	00f70863          	beq	a4,a5,2f9c <xvprintf+0x130>
    2f90:	fd744703          	lbu	a4,-41(s0)
    2f94:	04c00793          	li	a5,76
    2f98:	02f71263          	bne	a4,a5,2fbc <xvprintf+0x150>
    2f9c:	fdc42783          	lw	a5,-36(s0)
    2fa0:	0047e793          	ori	a5,a5,4
    2fa4:	fcf42e23          	sw	a5,-36(s0)
    2fa8:	fbc42783          	lw	a5,-68(s0)
    2fac:	00178713          	addi	a4,a5,1
    2fb0:	fae42e23          	sw	a4,-68(s0)
    2fb4:	0007c783          	lbu	a5,0(a5)
    2fb8:	fcf40ba3          	sb	a5,-41(s0)
    2fbc:	fd744783          	lbu	a5,-41(s0)
    2fc0:	32078063          	beqz	a5,32e0 <xvprintf+0x474>
    2fc4:	fd744783          	lbu	a5,-41(s0)
    2fc8:	fcf40b23          	sb	a5,-42(s0)
    2fcc:	fd644703          	lbu	a4,-42(s0)
    2fd0:	06000793          	li	a5,96
    2fd4:	00e7f863          	bgeu	a5,a4,2fe4 <xvprintf+0x178>
    2fd8:	fd644783          	lbu	a5,-42(s0)
    2fdc:	fe078793          	addi	a5,a5,-32
    2fe0:	fcf40b23          	sb	a5,-42(s0)
    2fe4:	fd644783          	lbu	a5,-42(s0)
    2fe8:	fbe78793          	addi	a5,a5,-66
    2fec:	01600713          	li	a4,22
    2ff0:	10f76063          	bltu	a4,a5,30f0 <xvprintf+0x284>
    2ff4:	00279713          	slli	a4,a5,0x2
    2ff8:	100007b7          	lui	a5,0x10000
    2ffc:	4c478793          	addi	a5,a5,1220 # 100004c4 <_data+0x4c4>
    3000:	00f707b3          	add	a5,a4,a5
    3004:	0007a783          	lw	a5,0(a5)
    3008:	00078067          	jr	a5
    300c:	fb842783          	lw	a5,-72(s0)
    3010:	00478713          	addi	a4,a5,4
    3014:	fae42c23          	sw	a4,-72(s0)
    3018:	0007a783          	lw	a5,0(a5)
    301c:	fcf42823          	sw	a5,-48(s0)
    3020:	fe042223          	sw	zero,-28(s0)
    3024:	0100006f          	j	3034 <xvprintf+0x1c8>
    3028:	fe442783          	lw	a5,-28(s0)
    302c:	00178793          	addi	a5,a5,1
    3030:	fef42223          	sw	a5,-28(s0)
    3034:	fd042703          	lw	a4,-48(s0)
    3038:	fe442783          	lw	a5,-28(s0)
    303c:	00f707b3          	add	a5,a4,a5
    3040:	0007c783          	lbu	a5,0(a5)
    3044:	fe0792e3          	bnez	a5,3028 <xvprintf+0x1bc>
    3048:	00c0006f          	j	3054 <xvprintf+0x1e8>
    304c:	02000513          	li	a0,32
    3050:	d6dff0ef          	jal	ra,2dbc <xputc>
    3054:	fdc42783          	lw	a5,-36(s0)
    3058:	0027f793          	andi	a5,a5,2
    305c:	00079c63          	bnez	a5,3074 <xvprintf+0x208>
    3060:	fe442783          	lw	a5,-28(s0)
    3064:	00178713          	addi	a4,a5,1
    3068:	fee42223          	sw	a4,-28(s0)
    306c:	fe042703          	lw	a4,-32(s0)
    3070:	fce7eee3          	bltu	a5,a4,304c <xvprintf+0x1e0>
    3074:	fd042503          	lw	a0,-48(s0)
    3078:	da5ff0ef          	jal	ra,2e1c <xputs>
    307c:	00c0006f          	j	3088 <xvprintf+0x21c>
    3080:	02000513          	li	a0,32
    3084:	d39ff0ef          	jal	ra,2dbc <xputc>
    3088:	fe442783          	lw	a5,-28(s0)
    308c:	00178713          	addi	a4,a5,1
    3090:	fee42223          	sw	a4,-28(s0)
    3094:	fe042703          	lw	a4,-32(s0)
    3098:	fee7e4e3          	bltu	a5,a4,3080 <xvprintf+0x214>
    309c:	2380006f          	j	32d4 <xvprintf+0x468>
    30a0:	fb842783          	lw	a5,-72(s0)
    30a4:	00478713          	addi	a4,a5,4
    30a8:	fae42c23          	sw	a4,-72(s0)
    30ac:	0007a783          	lw	a5,0(a5)
    30b0:	0ff7f793          	andi	a5,a5,255
    30b4:	00078513          	mv	a0,a5
    30b8:	d05ff0ef          	jal	ra,2dbc <xputc>
    30bc:	2180006f          	j	32d4 <xvprintf+0x468>
    30c0:	00200793          	li	a5,2
    30c4:	fef42623          	sw	a5,-20(s0)
    30c8:	0380006f          	j	3100 <xvprintf+0x294>
    30cc:	00800793          	li	a5,8
    30d0:	fef42623          	sw	a5,-20(s0)
    30d4:	02c0006f          	j	3100 <xvprintf+0x294>
    30d8:	00a00793          	li	a5,10
    30dc:	fef42623          	sw	a5,-20(s0)
    30e0:	0200006f          	j	3100 <xvprintf+0x294>
    30e4:	01000793          	li	a5,16
    30e8:	fef42623          	sw	a5,-20(s0)
    30ec:	0140006f          	j	3100 <xvprintf+0x294>
    30f0:	fd744783          	lbu	a5,-41(s0)
    30f4:	00078513          	mv	a0,a5
    30f8:	cc5ff0ef          	jal	ra,2dbc <xputc>
    30fc:	1d80006f          	j	32d4 <xvprintf+0x468>
    3100:	fdc42783          	lw	a5,-36(s0)
    3104:	0047f793          	andi	a5,a5,4
    3108:	00078c63          	beqz	a5,3120 <xvprintf+0x2b4>
    310c:	fb842783          	lw	a5,-72(s0)
    3110:	00478713          	addi	a4,a5,4
    3114:	fae42c23          	sw	a4,-72(s0)
    3118:	0007a783          	lw	a5,0(a5)
    311c:	0340006f          	j	3150 <xvprintf+0x2e4>
    3120:	fd644703          	lbu	a4,-42(s0)
    3124:	04400793          	li	a5,68
    3128:	00f71c63          	bne	a4,a5,3140 <xvprintf+0x2d4>
    312c:	fb842783          	lw	a5,-72(s0)
    3130:	00478713          	addi	a4,a5,4
    3134:	fae42c23          	sw	a4,-72(s0)
    3138:	0007a783          	lw	a5,0(a5)
    313c:	0140006f          	j	3150 <xvprintf+0x2e4>
    3140:	fb842783          	lw	a5,-72(s0)
    3144:	00478713          	addi	a4,a5,4
    3148:	fae42c23          	sw	a4,-72(s0)
    314c:	0007a783          	lw	a5,0(a5)
    3150:	fcf42c23          	sw	a5,-40(s0)
    3154:	fd644703          	lbu	a4,-42(s0)
    3158:	04400793          	li	a5,68
    315c:	02f71263          	bne	a4,a5,3180 <xvprintf+0x314>
    3160:	fd842783          	lw	a5,-40(s0)
    3164:	0007de63          	bgez	a5,3180 <xvprintf+0x314>
    3168:	fd842783          	lw	a5,-40(s0)
    316c:	40f007b3          	neg	a5,a5
    3170:	fcf42c23          	sw	a5,-40(s0)
    3174:	fdc42783          	lw	a5,-36(s0)
    3178:	0087e793          	ori	a5,a5,8
    317c:	fcf42e23          	sw	a5,-36(s0)
    3180:	fe042423          	sw	zero,-24(s0)
    3184:	fd842703          	lw	a4,-40(s0)
    3188:	fec42783          	lw	a5,-20(s0)
    318c:	02f777b3          	remu	a5,a4,a5
    3190:	fcf40b23          	sb	a5,-42(s0)
    3194:	fd842703          	lw	a4,-40(s0)
    3198:	fec42783          	lw	a5,-20(s0)
    319c:	02f757b3          	divu	a5,a4,a5
    31a0:	fcf42c23          	sw	a5,-40(s0)
    31a4:	fd644703          	lbu	a4,-42(s0)
    31a8:	00900793          	li	a5,9
    31ac:	02e7f463          	bgeu	a5,a4,31d4 <xvprintf+0x368>
    31b0:	fd744703          	lbu	a4,-41(s0)
    31b4:	07800793          	li	a5,120
    31b8:	00f71663          	bne	a4,a5,31c4 <xvprintf+0x358>
    31bc:	02700793          	li	a5,39
    31c0:	0080006f          	j	31c8 <xvprintf+0x35c>
    31c4:	00700793          	li	a5,7
    31c8:	fd644703          	lbu	a4,-42(s0)
    31cc:	00e787b3          	add	a5,a5,a4
    31d0:	fcf40b23          	sb	a5,-42(s0)
    31d4:	fe842783          	lw	a5,-24(s0)
    31d8:	00178713          	addi	a4,a5,1
    31dc:	fee42423          	sw	a4,-24(s0)
    31e0:	fd644703          	lbu	a4,-42(s0)
    31e4:	03070713          	addi	a4,a4,48
    31e8:	0ff77713          	andi	a4,a4,255
    31ec:	ff040693          	addi	a3,s0,-16
    31f0:	00f687b3          	add	a5,a3,a5
    31f4:	fce78823          	sb	a4,-48(a5)
    31f8:	fd842783          	lw	a5,-40(s0)
    31fc:	00078863          	beqz	a5,320c <xvprintf+0x3a0>
    3200:	fe842703          	lw	a4,-24(s0)
    3204:	00f00793          	li	a5,15
    3208:	f6e7fee3          	bgeu	a5,a4,3184 <xvprintf+0x318>
    320c:	fdc42783          	lw	a5,-36(s0)
    3210:	0087f793          	andi	a5,a5,8
    3214:	02078063          	beqz	a5,3234 <xvprintf+0x3c8>
    3218:	fe842783          	lw	a5,-24(s0)
    321c:	00178713          	addi	a4,a5,1
    3220:	fee42423          	sw	a4,-24(s0)
    3224:	ff040713          	addi	a4,s0,-16
    3228:	00f707b3          	add	a5,a4,a5
    322c:	02d00713          	li	a4,45
    3230:	fce78823          	sb	a4,-48(a5)
    3234:	fe842783          	lw	a5,-24(s0)
    3238:	fef42223          	sw	a5,-28(s0)
    323c:	fdc42783          	lw	a5,-36(s0)
    3240:	0017f793          	andi	a5,a5,1
    3244:	00078663          	beqz	a5,3250 <xvprintf+0x3e4>
    3248:	03000793          	li	a5,48
    324c:	0080006f          	j	3254 <xvprintf+0x3e8>
    3250:	02000793          	li	a5,32
    3254:	fcf40b23          	sb	a5,-42(s0)
    3258:	0100006f          	j	3268 <xvprintf+0x3fc>
    325c:	fd644783          	lbu	a5,-42(s0)
    3260:	00078513          	mv	a0,a5
    3264:	b59ff0ef          	jal	ra,2dbc <xputc>
    3268:	fdc42783          	lw	a5,-36(s0)
    326c:	0027f793          	andi	a5,a5,2
    3270:	00079c63          	bnez	a5,3288 <xvprintf+0x41c>
    3274:	fe442783          	lw	a5,-28(s0)
    3278:	00178713          	addi	a4,a5,1
    327c:	fee42223          	sw	a4,-28(s0)
    3280:	fe042703          	lw	a4,-32(s0)
    3284:	fce7ece3          	bltu	a5,a4,325c <xvprintf+0x3f0>
    3288:	fe842783          	lw	a5,-24(s0)
    328c:	fff78793          	addi	a5,a5,-1
    3290:	fef42423          	sw	a5,-24(s0)
    3294:	fe842783          	lw	a5,-24(s0)
    3298:	ff040713          	addi	a4,s0,-16
    329c:	00f707b3          	add	a5,a4,a5
    32a0:	fd07c783          	lbu	a5,-48(a5)
    32a4:	00078513          	mv	a0,a5
    32a8:	b15ff0ef          	jal	ra,2dbc <xputc>
    32ac:	fe842783          	lw	a5,-24(s0)
    32b0:	fc079ce3          	bnez	a5,3288 <xvprintf+0x41c>
    32b4:	00c0006f          	j	32c0 <xvprintf+0x454>
    32b8:	02000513          	li	a0,32
    32bc:	b01ff0ef          	jal	ra,2dbc <xputc>
    32c0:	fe442783          	lw	a5,-28(s0)
    32c4:	00178713          	addi	a4,a5,1
    32c8:	fee42223          	sw	a4,-28(s0)
    32cc:	fe042703          	lw	a4,-32(s0)
    32d0:	fee7e4e3          	bltu	a5,a4,32b8 <xvprintf+0x44c>
    32d4:	bb1ff06f          	j	2e84 <xvprintf+0x18>
    32d8:	00000013          	nop
    32dc:	0080006f          	j	32e4 <xvprintf+0x478>
    32e0:	00000013          	nop
    32e4:	00000013          	nop
    32e8:	04c12083          	lw	ra,76(sp)
    32ec:	04812403          	lw	s0,72(sp)
    32f0:	05010113          	addi	sp,sp,80
    32f4:	00008067          	ret

000032f8 <xprintf>:
    32f8:	fb010113          	addi	sp,sp,-80
    32fc:	02112623          	sw	ra,44(sp)
    3300:	02812423          	sw	s0,40(sp)
    3304:	03010413          	addi	s0,sp,48
    3308:	fca42e23          	sw	a0,-36(s0)
    330c:	00b42223          	sw	a1,4(s0)
    3310:	00c42423          	sw	a2,8(s0)
    3314:	00d42623          	sw	a3,12(s0)
    3318:	00e42823          	sw	a4,16(s0)
    331c:	00f42a23          	sw	a5,20(s0)
    3320:	01042c23          	sw	a6,24(s0)
    3324:	01142e23          	sw	a7,28(s0)
    3328:	02040793          	addi	a5,s0,32
    332c:	fe478793          	addi	a5,a5,-28
    3330:	fef42623          	sw	a5,-20(s0)
    3334:	fec42783          	lw	a5,-20(s0)
    3338:	00078593          	mv	a1,a5
    333c:	fdc42503          	lw	a0,-36(s0)
    3340:	b2dff0ef          	jal	ra,2e6c <xvprintf>
    3344:	00000013          	nop
    3348:	02c12083          	lw	ra,44(sp)
    334c:	02812403          	lw	s0,40(sp)
    3350:	05010113          	addi	sp,sp,80
    3354:	00008067          	ret

00003358 <uart_putc>:
    3358:	fe010113          	addi	sp,sp,-32
    335c:	00812e23          	sw	s0,28(sp)
    3360:	02010413          	addi	s0,sp,32
    3364:	00050793          	mv	a5,a0
    3368:	fef407a3          	sb	a5,-17(s0)
    336c:	00000013          	nop
    3370:	300007b7          	lui	a5,0x30000
    3374:	00478793          	addi	a5,a5,4 # 30000004 <__freertos_irq_stack_top+0x1fffc004>
    3378:	0007a783          	lw	a5,0(a5)
    337c:	0017f793          	andi	a5,a5,1
    3380:	fe0798e3          	bnez	a5,3370 <uart_putc+0x18>
    3384:	300007b7          	lui	a5,0x30000
    3388:	00c78793          	addi	a5,a5,12 # 3000000c <__freertos_irq_stack_top+0x1fffc00c>
    338c:	fef44703          	lbu	a4,-17(s0)
    3390:	00e7a023          	sw	a4,0(a5)
    3394:	00000013          	nop
    3398:	01c12403          	lw	s0,28(sp)
    339c:	02010113          	addi	sp,sp,32
    33a0:	00008067          	ret

000033a4 <uart_getc_nowait>:
    33a4:	fe010113          	addi	sp,sp,-32
    33a8:	00812e23          	sw	s0,28(sp)
    33ac:	02010413          	addi	s0,sp,32
    33b0:	300007b7          	lui	a5,0x30000
    33b4:	00478793          	addi	a5,a5,4 # 30000004 <__freertos_irq_stack_top+0x1fffc004>
    33b8:	0007a783          	lw	a5,0(a5)
    33bc:	0027f793          	andi	a5,a5,2
    33c0:	02078c63          	beqz	a5,33f8 <uart_getc_nowait+0x54>
    33c4:	300007b7          	lui	a5,0x30000
    33c8:	01078793          	addi	a5,a5,16 # 30000010 <__freertos_irq_stack_top+0x1fffc010>
    33cc:	0007a783          	lw	a5,0(a5)
    33d0:	fef407a3          	sb	a5,-17(s0)
    33d4:	300007b7          	lui	a5,0x30000
    33d8:	00478793          	addi	a5,a5,4 # 30000004 <__freertos_irq_stack_top+0x1fffc004>
    33dc:	0007a703          	lw	a4,0(a5)
    33e0:	300007b7          	lui	a5,0x30000
    33e4:	00478793          	addi	a5,a5,4 # 30000004 <__freertos_irq_stack_top+0x1fffc004>
    33e8:	ffd77713          	andi	a4,a4,-3
    33ec:	00e7a023          	sw	a4,0(a5)
    33f0:	fef44783          	lbu	a5,-17(s0)
    33f4:	0080006f          	j	33fc <uart_getc_nowait+0x58>
    33f8:	00000793          	li	a5,0
    33fc:	00078513          	mv	a0,a5
    3400:	01c12403          	lw	s0,28(sp)
    3404:	02010113          	addi	sp,sp,32
    3408:	00008067          	ret

0000340c <uart_init>:
    340c:	ff010113          	addi	sp,sp,-16
    3410:	00812623          	sw	s0,12(sp)
    3414:	01010413          	addi	s0,sp,16
    3418:	300007b7          	lui	a5,0x30000
    341c:	00300713          	li	a4,3
    3420:	00e7a023          	sw	a4,0(a5) # 30000000 <__freertos_irq_stack_top+0x1fffc000>
    3424:	00003737          	lui	a4,0x3
    3428:	35870713          	addi	a4,a4,856 # 3358 <uart_putc>
    342c:	80e1a623          	sw	a4,-2036(gp) # 1000052c <xfunc_out>
    3430:	300007b7          	lui	a5,0x30000
    3434:	00478793          	addi	a5,a5,4 # 30000004 <__freertos_irq_stack_top+0x1fffc004>
    3438:	0007a703          	lw	a4,0(a5)
    343c:	300007b7          	lui	a5,0x30000
    3440:	00478793          	addi	a5,a5,4 # 30000004 <__freertos_irq_stack_top+0x1fffc004>
    3444:	ffd77713          	andi	a4,a4,-3
    3448:	00e7a023          	sw	a4,0(a5)
    344c:	00000013          	nop
    3450:	00c12403          	lw	s0,12(sp)
    3454:	01010113          	addi	sp,sp,16
    3458:	00008067          	ret

0000345c <spi_write_byte>:
    345c:	fe010113          	addi	sp,sp,-32
    3460:	00812e23          	sw	s0,28(sp)
    3464:	02010413          	addi	s0,sp,32
    3468:	00050793          	mv	a5,a0
    346c:	fef407a3          	sb	a5,-17(s0)
    3470:	500007b7          	lui	a5,0x50000
    3474:	00478793          	addi	a5,a5,4 # 50000004 <__freertos_irq_stack_top+0x3fffc004>
    3478:	fef44703          	lbu	a4,-17(s0)
    347c:	00e7a023          	sw	a4,0(a5)
    3480:	500007b7          	lui	a5,0x50000
    3484:	0007a703          	lw	a4,0(a5) # 50000000 <__freertos_irq_stack_top+0x3fffc000>
    3488:	500007b7          	lui	a5,0x50000
    348c:	00176713          	ori	a4,a4,1
    3490:	00e7a023          	sw	a4,0(a5) # 50000000 <__freertos_irq_stack_top+0x3fffc000>
    3494:	00000013          	nop
    3498:	500007b7          	lui	a5,0x50000
    349c:	00878793          	addi	a5,a5,8 # 50000008 <__freertos_irq_stack_top+0x3fffc008>
    34a0:	0007a783          	lw	a5,0(a5)
    34a4:	0017f793          	andi	a5,a5,1
    34a8:	fe0798e3          	bnez	a5,3498 <spi_write_byte+0x3c>
    34ac:	00000013          	nop
    34b0:	01c12403          	lw	s0,28(sp)
    34b4:	02010113          	addi	sp,sp,32
    34b8:	00008067          	ret

000034bc <memset>:
    34bc:	00f00313          	li	t1,15
    34c0:	00050713          	mv	a4,a0
    34c4:	02c37e63          	bgeu	t1,a2,3500 <memset+0x44>
    34c8:	00f77793          	andi	a5,a4,15
    34cc:	0a079063          	bnez	a5,356c <memset+0xb0>
    34d0:	08059263          	bnez	a1,3554 <memset+0x98>
    34d4:	ff067693          	andi	a3,a2,-16
    34d8:	00f67613          	andi	a2,a2,15
    34dc:	00e686b3          	add	a3,a3,a4
    34e0:	00b72023          	sw	a1,0(a4)
    34e4:	00b72223          	sw	a1,4(a4)
    34e8:	00b72423          	sw	a1,8(a4)
    34ec:	00b72623          	sw	a1,12(a4)
    34f0:	01070713          	addi	a4,a4,16
    34f4:	fed766e3          	bltu	a4,a3,34e0 <memset+0x24>
    34f8:	00061463          	bnez	a2,3500 <memset+0x44>
    34fc:	00008067          	ret
    3500:	40c306b3          	sub	a3,t1,a2
    3504:	00269693          	slli	a3,a3,0x2
    3508:	00000297          	auipc	t0,0x0
    350c:	005686b3          	add	a3,a3,t0
    3510:	00c68067          	jr	12(a3)
    3514:	00b70723          	sb	a1,14(a4)
    3518:	00b706a3          	sb	a1,13(a4)
    351c:	00b70623          	sb	a1,12(a4)
    3520:	00b705a3          	sb	a1,11(a4)
    3524:	00b70523          	sb	a1,10(a4)
    3528:	00b704a3          	sb	a1,9(a4)
    352c:	00b70423          	sb	a1,8(a4)
    3530:	00b703a3          	sb	a1,7(a4)
    3534:	00b70323          	sb	a1,6(a4)
    3538:	00b702a3          	sb	a1,5(a4)
    353c:	00b70223          	sb	a1,4(a4)
    3540:	00b701a3          	sb	a1,3(a4)
    3544:	00b70123          	sb	a1,2(a4)
    3548:	00b700a3          	sb	a1,1(a4)
    354c:	00b70023          	sb	a1,0(a4)
    3550:	00008067          	ret
    3554:	0ff5f593          	andi	a1,a1,255
    3558:	00859693          	slli	a3,a1,0x8
    355c:	00d5e5b3          	or	a1,a1,a3
    3560:	01059693          	slli	a3,a1,0x10
    3564:	00d5e5b3          	or	a1,a1,a3
    3568:	f6dff06f          	j	34d4 <memset+0x18>
    356c:	00279693          	slli	a3,a5,0x2
    3570:	00000297          	auipc	t0,0x0
    3574:	005686b3          	add	a3,a3,t0
    3578:	00008293          	mv	t0,ra
    357c:	fa0680e7          	jalr	-96(a3)
    3580:	00028093          	mv	ra,t0
    3584:	ff078793          	addi	a5,a5,-16
    3588:	40f70733          	sub	a4,a4,a5
    358c:	00f60633          	add	a2,a2,a5
    3590:	f6c378e3          	bgeu	t1,a2,3500 <memset+0x44>
    3594:	f3dff06f          	j	34d0 <memset+0x14>

Disassembly of section .data:

10000000 <font>:
10000000:	0000                	unimp
10000002:	0000                	unimp
10000004:	0000                	unimp
10000006:	0780                	addi	s0,sp,960
10000008:	0000                	unimp
1000000a:	07f0                	addi	a2,sp,972
1000000c:	0000                	unimp
1000000e:	07fe                	slli	a5,a5,0x1f
10000010:	e000                	fsw	fs0,0(s0)
10000012:	07ff                	0x7ff
10000014:	fc00                	fsw	fs0,56(s0)
10000016:	007f                	0x7f
10000018:	ffc0                	fsw	fs0,60(a5)
1000001a:	001f ffc0 001c      	0x1cffc0001f
10000020:	1fc0                	addi	s0,sp,1012
10000022:	001c                	0x1c
10000024:	ffc0                	fsw	fs0,60(a5)
10000026:	001c                	0x1c
10000028:	ff80                	fsw	fs0,56(a5)
1000002a:	001f f800 00ff      	0xfff800001f
10000030:	c000                	sw	s0,0(s0)
10000032:	07ff                	0x7ff
10000034:	0000                	unimp
10000036:	07fe                	slli	a5,a5,0x1f
10000038:	0000                	unimp
1000003a:	07e0                	addi	s0,sp,972
1000003c:	0000                	unimp
1000003e:	0700                	addi	s0,sp,896
10000040:	0000                	unimp
10000042:	0000                	unimp
10000044:	ffc0                	fsw	fs0,60(a5)
10000046:	07ff                	0x7ff
10000048:	ffc0                	fsw	fs0,60(a5)
1000004a:	07ff                	0x7ff
1000004c:	ffc0                	fsw	fs0,60(a5)
1000004e:	07ff                	0x7ff
10000050:	ffc0                	fsw	fs0,60(a5)
10000052:	07ff                	0x7ff
10000054:	80c0                	0x80c0
10000056:	0601                	addi	a2,a2,0
10000058:	80c0                	0x80c0
1000005a:	0601                	addi	a2,a2,0
1000005c:	80c0                	0x80c0
1000005e:	0601                	addi	a2,a2,0
10000060:	80c0                	0x80c0
10000062:	0601                	addi	a2,a2,0
10000064:	81c0                	0x81c0
10000066:	c1c00603          	lb	a2,-996(zero) # fffffc1c <__freertos_irq_stack_top+0xefffbc1c>
1000006a:	ffc00703          	lb	a4,-4(zero) # fffffffc <__freertos_irq_stack_top+0xefffbffc>
1000006e:	ff800787          	0xff800787
10000072:	07ff                	0x7ff
10000074:	7f00                	flw	fs0,56(a4)
10000076:	03fe                	slli	t2,t2,0x1f
10000078:	3e00                	fld	fs0,56(a2)
1000007a:	01fc                	addi	a5,sp,204
1000007c:	0000                	unimp
1000007e:	0078                	addi	a4,sp,12
10000080:	0000                	unimp
10000082:	0000                	unimp
10000084:	ffc0                	fsw	fs0,60(a5)
10000086:	07ff                	0x7ff
10000088:	ffc0                	fsw	fs0,60(a5)
1000008a:	07ff                	0x7ff
1000008c:	ffc0                	fsw	fs0,60(a5)
1000008e:	07ff                	0x7ff
10000090:	ffc0                	fsw	fs0,60(a5)
10000092:	07ff                	0x7ff
10000094:	00c0                	addi	s0,sp,68
10000096:	0600                	addi	s0,sp,768
10000098:	00c0                	addi	s0,sp,68
1000009a:	0600                	addi	s0,sp,768
1000009c:	01c0                	addi	s0,sp,196
1000009e:	0600                	addi	s0,sp,768
100000a0:	01c0                	addi	s0,sp,196
100000a2:	0700                	addi	s0,sp,896
100000a4:	03c0                	addi	s0,sp,452
100000a6:	0700                	addi	s0,sp,896
100000a8:	0780                	addi	s0,sp,960
100000aa:	0780                	addi	s0,sp,960
100000ac:	3f80                	fld	fs0,56(a5)
100000ae:	03f8                	addi	a4,sp,460
100000b0:	ff00                	fsw	fs0,56(a4)
100000b2:	03ff                	0x3ff
100000b4:	fe00                	fsw	fs0,56(a2)
100000b6:	01ff                	0x1ff
100000b8:	fc00                	fsw	fs0,56(s0)
100000ba:	007f                	0x7f
100000bc:	c000                	sw	s0,0(s0)
100000be:	00000007          	0x7
100000c2:	0000                	unimp
100000c4:	0000                	unimp
100000c6:	0000                	unimp
100000c8:	ffc0                	fsw	fs0,60(a5)
100000ca:	07ff                	0x7ff
100000cc:	ffc0                	fsw	fs0,60(a5)
100000ce:	07ff                	0x7ff
100000d0:	ffc0                	fsw	fs0,60(a5)
100000d2:	07ff                	0x7ff
100000d4:	ffc0                	fsw	fs0,60(a5)
100000d6:	07ff                	0x7ff
100000d8:	80c0                	0x80c0
100000da:	0601                	addi	a2,a2,0
100000dc:	80c0                	0x80c0
100000de:	0601                	addi	a2,a2,0
100000e0:	80c0                	0x80c0
100000e2:	0601                	addi	a2,a2,0
100000e4:	80c0                	0x80c0
100000e6:	0601                	addi	a2,a2,0
100000e8:	80c0                	0x80c0
100000ea:	0601                	addi	a2,a2,0
100000ec:	80c0                	0x80c0
100000ee:	0601                	addi	a2,a2,0
100000f0:	80c0                	0x80c0
100000f2:	0601                	addi	a2,a2,0
100000f4:	80c0                	0x80c0
100000f6:	0601                	addi	a2,a2,0
100000f8:	00c0                	addi	s0,sp,68
100000fa:	0600                	addi	s0,sp,768
100000fc:	0000                	unimp
100000fe:	0600                	addi	s0,sp,768
10000100:	0000                	unimp
10000102:	0000                	unimp
10000104:	e000                	fsw	fs0,0(s0)
10000106:	001f fc00 00ff      	0xfffc00001f
1000010c:	ff00                	fsw	fs0,56(a4)
1000010e:	03ff                	0x3ff
10000110:	ff80                	fsw	fs0,56(a5)
10000112:	03ff                	0x3ff
10000114:	0fc0                	addi	s0,sp,980
10000116:	07e0                	addi	s0,sp,972
10000118:	03c0                	addi	s0,sp,452
1000011a:	0700                	addi	s0,sp,896
1000011c:	01c0                	addi	s0,sp,196
1000011e:	0e00                	addi	s0,sp,784
10000120:	00c0                	addi	s0,sp,68
10000122:	0e06                	slli	t3,t3,0x1
10000124:	00c0                	addi	s0,sp,68
10000126:	0e06                	slli	t3,t3,0x1
10000128:	01c0                	addi	s0,sp,196
1000012a:	0706                	slli	a4,a4,0x1
1000012c:	1fc0                	addi	s0,sp,1012
1000012e:	0786                	slli	a5,a5,0x1
10000130:	1f80                	addi	s0,sp,1008
10000132:	0ffe                	slli	t6,t6,0x1f
10000134:	1f00                	addi	s0,sp,944
10000136:	0ffe                	slli	t6,t6,0x1f
10000138:	1e00                	addi	s0,sp,816
1000013a:	0ffe                	slli	t6,t6,0x1f
	...
10000158:	ffc0                	fsw	fs0,60(a5)
1000015a:	07ff                	0x7ff
1000015c:	ffc0                	fsw	fs0,60(a5)
1000015e:	07ff                	0x7ff
10000160:	ffc0                	fsw	fs0,60(a5)
10000162:	07ff                	0x7ff
10000164:	ffc0                	fsw	fs0,60(a5)
10000166:	07ff                	0x7ff
	...
10000184:	ffc0                	fsw	fs0,60(a5)
10000186:	07ff                	0x7ff
10000188:	ffc0                	fsw	fs0,60(a5)
1000018a:	07ff                	0x7ff
1000018c:	ffc0                	fsw	fs0,60(a5)
1000018e:	07ff                	0x7ff
10000190:	ffc0                	fsw	fs0,60(a5)
10000192:	07ff                	0x7ff
10000194:	c000                	sw	s0,0(s0)
10000196:	f0000007          	0xf0000007
1000019a:	f8000003          	lb	zero,-128(zero) # ffffff80 <__freertos_irq_stack_top+0xefffbf80>
1000019e:	fc000007          	0xfc000007
100001a2:	001f bf00 007f      	0x7fbf00001f
100001a8:	1f80                	addi	s0,sp,1008
100001aa:	01fe                	slli	gp,gp,0x1f
100001ac:	07c0                	addi	s0,sp,964
100001ae:	03f8                	addi	a4,sp,460
100001b0:	03c0                	addi	s0,sp,452
100001b2:	07e0                	addi	s0,sp,972
100001b4:	01c0                	addi	s0,sp,196
100001b6:	07c0                	addi	s0,sp,964
100001b8:	00c0                	addi	s0,sp,68
100001ba:	0700                	addi	s0,sp,896
100001bc:	0000                	unimp
100001be:	0400                	addi	s0,sp,512
100001c0:	0000                	unimp
100001c2:	0000                	unimp
100001c4:	ffc0                	fsw	fs0,60(a5)
100001c6:	07ff                	0x7ff
100001c8:	ffc0                	fsw	fs0,60(a5)
100001ca:	07ff                	0x7ff
100001cc:	ffc0                	fsw	fs0,60(a5)
100001ce:	07ff                	0x7ff
100001d0:	ffc0                	fsw	fs0,60(a5)
100001d2:	07ff                	0x7ff
100001d4:	ffc0                	fsw	fs0,60(a5)
100001d6:	fe00000f          	0xfe00000f
100001da:	01ff                	0x1ff
100001dc:	c000                	sw	s0,0(s0)
100001de:	07ff                	0x7ff
100001e0:	0000                	unimp
100001e2:	07fc                	addi	a5,sp,972
100001e4:	f000                	fsw	fs0,32(s0)
100001e6:	07ff                	0x7ff
100001e8:	ff80                	fsw	fs0,56(a5)
100001ea:	00ff                	0xff
100001ec:	ffc0                	fsw	fs0,60(a5)
100001ee:	ffc00007          	0xffc00007
100001f2:	07ff                	0x7ff
100001f4:	ffc0                	fsw	fs0,60(a5)
100001f6:	07ff                	0x7ff
100001f8:	ffc0                	fsw	fs0,60(a5)
100001fa:	07ff                	0x7ff
100001fc:	ffc0                	fsw	fs0,60(a5)
100001fe:	07ff                	0x7ff
10000200:	0000                	unimp
10000202:	0000                	unimp
10000204:	ffc0                	fsw	fs0,60(a5)
10000206:	07ff                	0x7ff
10000208:	ffc0                	fsw	fs0,60(a5)
1000020a:	07ff                	0x7ff
1000020c:	ffc0                	fsw	fs0,60(a5)
1000020e:	07ff                	0x7ff
10000210:	ffc0                	fsw	fs0,60(a5)
10000212:	07ff                	0x7ff
10000214:	7fc0                	flw	fs0,60(a5)
10000216:	0000                	unimp
10000218:	fe00                	fsw	fs0,56(a2)
1000021a:	0001                	nop
1000021c:	f800                	fsw	fs0,48(s0)
1000021e:	e0000007          	0xe0000007
10000222:	001f 8000 00ff      	0xff8000001f
10000228:	0000                	unimp
1000022a:	03fc                	addi	a5,sp,460
1000022c:	ffc0                	fsw	fs0,60(a5)
1000022e:	07ff                	0x7ff
10000230:	ffc0                	fsw	fs0,60(a5)
10000232:	07ff                	0x7ff
10000234:	ffc0                	fsw	fs0,60(a5)
10000236:	07ff                	0x7ff
10000238:	ffc0                	fsw	fs0,60(a5)
1000023a:	07ff                	0x7ff
	...
10000244:	f800                	fsw	fs0,48(s0)
10000246:	fe00003f ff8001ff 	0xff8001fffe00003f
1000024e:	03ff                	0x3ff
10000250:	ff80                	fsw	fs0,56(a5)
10000252:	07ff                	0x7ff
10000254:	07c0                	addi	s0,sp,964
10000256:	07c0                	addi	s0,sp,964
10000258:	01c0                	addi	s0,sp,196
1000025a:	0700                	addi	s0,sp,896
1000025c:	00c0                	addi	s0,sp,68
1000025e:	0e00                	addi	s0,sp,784
10000260:	00c0                	addi	s0,sp,68
10000262:	0e00                	addi	s0,sp,784
10000264:	01c0                	addi	s0,sp,196
10000266:	0e00                	addi	s0,sp,784
10000268:	03c0                	addi	s0,sp,452
1000026a:	0700                	addi	s0,sp,896
1000026c:	0fc0                	addi	s0,sp,980
1000026e:	07e0                	addi	s0,sp,972
10000270:	ff80                	fsw	fs0,56(a5)
10000272:	07ff                	0x7ff
10000274:	ff00                	fsw	fs0,56(a4)
10000276:	03ff                	0x3ff
10000278:	fe00                	fsw	fs0,56(a2)
1000027a:	00ff                	0xff
1000027c:	e000                	fsw	fs0,0(s0)
1000027e:	001f 0000 0000      	0x1f
10000284:	0000                	unimp
10000286:	0000                	unimp
10000288:	ffc0                	fsw	fs0,60(a5)
1000028a:	07ff                	0x7ff
1000028c:	ffc0                	fsw	fs0,60(a5)
1000028e:	07ff                	0x7ff
10000290:	ffc0                	fsw	fs0,60(a5)
10000292:	07ff                	0x7ff
10000294:	ffc0                	fsw	fs0,60(a5)
10000296:	07ff                	0x7ff
10000298:	00c0                	addi	s0,sp,68
1000029a:	0006                	c.slli	zero,0x1
1000029c:	00c0                	addi	s0,sp,68
1000029e:	0006                	c.slli	zero,0x1
100002a0:	00c0                	addi	s0,sp,68
100002a2:	0006                	c.slli	zero,0x1
100002a4:	01c0                	addi	s0,sp,196
100002a6:	01c00007          	0x1c00007
100002aa:	83c00007          	0x83c00007
100002ae:	ff800007          	0xff800007
100002b2:	ff800003          	lb	zero,-8(zero) # fffffff8 <__freertos_irq_stack_top+0xefffbff8>
100002b6:	ff000003          	lb	zero,-16(zero) # fffffff0 <__freertos_irq_stack_top+0xefffbff0>
100002ba:	0001                	nop
100002bc:	7c00                	flw	fs0,56(s0)
100002be:	0000                	unimp
100002c0:	0000                	unimp
100002c2:	0000                	unimp
100002c4:	f800                	fsw	fs0,48(s0)
100002c6:	fe00003f ff8001ff 	0xff8001fffe00003f
100002ce:	03ff                	0x3ff
100002d0:	ff80                	fsw	fs0,56(a5)
100002d2:	07ff                	0x7ff
100002d4:	07c0                	addi	s0,sp,964
100002d6:	07c0                	addi	s0,sp,964
100002d8:	01c0                	addi	s0,sp,196
100002da:	0700                	addi	s0,sp,896
100002dc:	00c0                	addi	s0,sp,68
100002de:	0e00                	addi	s0,sp,784
100002e0:	00c0                	addi	s0,sp,68
100002e2:	0e30                	addi	a2,sp,792
100002e4:	01c0                	addi	s0,sp,196
100002e6:	0ef8                	addi	a4,sp,860
100002e8:	03c0                	addi	s0,sp,452
100002ea:	07f8                	addi	a4,sp,972
100002ec:	0fc0                	addi	s0,sp,980
100002ee:	0fe0                	addi	s0,sp,988
100002f0:	ff80                	fsw	fs0,56(a5)
100002f2:	0fff                	0xfff
100002f4:	ff00                	fsw	fs0,56(a4)
100002f6:	0fff                	0xfff
100002f8:	fe00                	fsw	fs0,56(a2)
100002fa:	04ff                	0x4ff
100002fc:	e000                	fsw	fs0,0(s0)
100002fe:	001f 0000 0000      	0x1f
10000304:	ffc0                	fsw	fs0,60(a5)
10000306:	07ff                	0x7ff
10000308:	ffc0                	fsw	fs0,60(a5)
1000030a:	07ff                	0x7ff
1000030c:	ffc0                	fsw	fs0,60(a5)
1000030e:	07ff                	0x7ff
10000310:	ffc0                	fsw	fs0,60(a5)
10000312:	07ff                	0x7ff
10000314:	00c0                	addi	s0,sp,68
10000316:	00c00003          	lb	zero,12(zero) # c <_start+0xc>
1000031a:	00c00003          	lb	zero,12(zero) # c <_start+0xc>
1000031e:	00c00003          	lb	zero,12(zero) # c <_start+0xc>
10000322:	81c0000f          	0x81c0000f
10000326:	81c0003f ffc000ff 	0xffc000ff81c0003f
1000032e:	03ff                	0x3ff
10000330:	ff80                	fsw	fs0,56(a5)
10000332:	07f1                	addi	a5,a5,28
10000334:	ff80                	fsw	fs0,56(a5)
10000336:	07c1                	addi	a5,a5,16
10000338:	fe00                	fsw	fs0,56(a2)
1000033a:	0700                	addi	s0,sp,896
1000033c:	0000                	unimp
1000033e:	0400                	addi	s0,sp,512
10000340:	0000                	unimp
10000342:	0000                	unimp
10000344:	0000                	unimp
10000346:	00e0                	addi	s0,sp,76
10000348:	3f00                	fld	fs0,56(a4)
1000034a:	01e0                	addi	s0,sp,204
1000034c:	7f80                	flw	fs0,56(a5)
1000034e:	03e0                	addi	s0,sp,460
10000350:	ff80                	fsw	fs0,56(a5)
10000352:	07e0                	addi	s0,sp,972
10000354:	ffc0                	fsw	fs0,60(a5)
10000356:	0781                	addi	a5,a5,0
10000358:	e1c0                	fsw	fs0,4(a1)
1000035a:	0e01                	addi	t3,t3,0
1000035c:	c0c0                	sw	s0,4(s1)
1000035e:	0e01                	addi	t3,t3,0
10000360:	80c0                	0x80c0
10000362:	81c00e03          	lb	t3,-2020(zero) # fffff81c <__freertos_irq_stack_top+0xefffb81c>
10000366:	83c00e07          	0x83c00e07
1000036a:	0fc00707          	0xfc00707
1000036e:	079f 0f80 07fe      	0x7fe0f80079f
10000374:	0f00                	addi	s0,sp,912
10000376:	03fe                	slli	t2,t2,0x1f
10000378:	0c00                	addi	s0,sp,528
1000037a:	01fc                	addi	a5,sp,204
	...
10000384:	00c0                	addi	s0,sp,68
10000386:	0000                	unimp
10000388:	00c0                	addi	s0,sp,68
1000038a:	0000                	unimp
1000038c:	00c0                	addi	s0,sp,68
1000038e:	0000                	unimp
10000390:	00c0                	addi	s0,sp,68
10000392:	0000                	unimp
10000394:	00c0                	addi	s0,sp,68
10000396:	0000                	unimp
10000398:	ffc0                	fsw	fs0,60(a5)
1000039a:	07ff                	0x7ff
1000039c:	ffc0                	fsw	fs0,60(a5)
1000039e:	07ff                	0x7ff
100003a0:	ffc0                	fsw	fs0,60(a5)
100003a2:	07ff                	0x7ff
100003a4:	ffc0                	fsw	fs0,60(a5)
100003a6:	07ff                	0x7ff
100003a8:	00c0                	addi	s0,sp,68
100003aa:	0000                	unimp
100003ac:	00c0                	addi	s0,sp,68
100003ae:	0000                	unimp
100003b0:	00c0                	addi	s0,sp,68
100003b2:	0000                	unimp
100003b4:	00c0                	addi	s0,sp,68
100003b6:	0000                	unimp
100003b8:	00c0                	addi	s0,sp,68
	...
100003c2:	0000                	unimp
100003c4:	ffc0                	fsw	fs0,60(a5)
100003c6:	007f                	0x7f
100003c8:	ffc0                	fsw	fs0,60(a5)
100003ca:	01ff                	0x1ff
100003cc:	ffc0                	fsw	fs0,60(a5)
100003ce:	03ff                	0x3ff
100003d0:	ffc0                	fsw	fs0,60(a5)
100003d2:	07ff                	0x7ff
100003d4:	0000                	unimp
100003d6:	0780                	addi	s0,sp,960
100003d8:	0000                	unimp
100003da:	0f00                	addi	s0,sp,912
100003dc:	0000                	unimp
100003de:	0e00                	addi	s0,sp,784
100003e0:	0000                	unimp
100003e2:	0e00                	addi	s0,sp,784
100003e4:	0000                	unimp
100003e6:	0e00                	addi	s0,sp,784
100003e8:	0000                	unimp
100003ea:	0f00                	addi	s0,sp,912
100003ec:	ffc0                	fsw	fs0,60(a5)
100003ee:	07ff                	0x7ff
100003f0:	ffc0                	fsw	fs0,60(a5)
100003f2:	07ff                	0x7ff
100003f4:	ffc0                	fsw	fs0,60(a5)
100003f6:	03ff                	0x3ff
100003f8:	ffc0                	fsw	fs0,60(a5)
100003fa:	01ff                	0x1ff
100003fc:	0000                	unimp
100003fe:	0000                	unimp
10000400:	0040                	addi	s0,sp,4
10000402:	0000                	unimp
10000404:	03c0                	addi	s0,sp,452
10000406:	0000                	unimp
10000408:	3fc0                	fld	fs0,184(a5)
1000040a:	0000                	unimp
1000040c:	ffc0                	fsw	fs0,60(a5)
1000040e:	0001                	nop
10000410:	ff80                	fsw	fs0,56(a5)
10000412:	001f f800 00ff      	0xfff800001f
10000418:	c000                	sw	s0,0(s0)
1000041a:	0fff                	0xfff
1000041c:	0000                	unimp
1000041e:	0ffc                	addi	a5,sp,988
10000420:	0000                	unimp
10000422:	0ff0                	addi	a2,sp,988
10000424:	0000                	unimp
10000426:	0fff                	0xfff
10000428:	e000                	fsw	fs0,0(s0)
1000042a:	03ff                	0x3ff
1000042c:	fe00                	fsw	fs0,56(a2)
1000042e:	ffc0003f ffc00007 	0xffc00007ffc0003f
10000436:	0000                	unimp
10000438:	0fc0                	addi	s0,sp,980
1000043a:	0000                	unimp
1000043c:	01c0                	addi	s0,sp,196
1000043e:	0000                	unimp
10000440:	0c4c                	addi	a1,sp,532
10000442:	0000                	unimp
10000444:	0c54                	addi	a3,sp,532
10000446:	0000                	unimp
10000448:	0e68                	addi	a0,sp,796
1000044a:	0000                	unimp
1000044c:	0c60                	addi	s0,sp,540
1000044e:	0000                	unimp
10000450:	0c6c                	addi	a1,sp,540
10000452:	0000                	unimp
10000454:	0e68                	addi	a0,sp,796
10000456:	0000                	unimp
10000458:	0c78                	addi	a4,sp,540
1000045a:	0000                	unimp
1000045c:	0e68                	addi	a0,sp,796
1000045e:	0000                	unimp
10000460:	0c84                	addi	s1,sp,592
10000462:	0000                	unimp
10000464:	0e68                	addi	a0,sp,796
10000466:	0000                	unimp
10000468:	0c90                	addi	a2,sp,592
1000046a:	0000                	unimp
1000046c:	0e68                	addi	a0,sp,796
1000046e:	0000                	unimp
10000470:	0c9c                	addi	a5,sp,592
10000472:	0000                	unimp
10000474:	0ca8                	addi	a0,sp,600
10000476:	0000                	unimp
10000478:	0cb4                	addi	a3,sp,600
1000047a:	0000                	unimp
1000047c:	0cc0                	addi	s0,sp,596
1000047e:	0000                	unimp
10000480:	0ccc                	addi	a1,sp,596
10000482:	0000                	unimp
10000484:	0cd8                	addi	a4,sp,596
10000486:	0000                	unimp
10000488:	0ce4                	addi	s1,sp,604
1000048a:	0000                	unimp
1000048c:	0cf0                	addi	a2,sp,604
1000048e:	0000                	unimp
10000490:	0cfc                	addi	a5,sp,604
10000492:	0000                	unimp
10000494:	0d08                	addi	a0,sp,656
10000496:	0000                	unimp
10000498:	454d4147          	0x454d4147
1000049c:	4f20                	lw	s0,88(a4)
1000049e:	4556                	lw	a0,84(sp)
100004a0:	0052                	c.slli	zero,0x14
100004a2:	0000                	unimp
100004a4:	454d                	li	a0,19
100004a6:	554e                	lw	a0,240(sp)
100004a8:	0000                	unimp
100004aa:	0000                	unimp
100004ac:	5250                	lw	a2,36(a2)
100004ae:	5345                	li	t1,-15
100004b0:	50552053          	0x50552053
100004b4:	7420                	flw	fs0,104(s0)
100004b6:	6c70206f          	j	1000337c <__global_pointer$+0x265c>
100004ba:	7961                	lui	s2,0xffff8
100004bc:	0000                	unimp
100004be:	0000                	unimp
100004c0:	6325                	lui	t1,0x9
100004c2:	0000                	unimp
100004c4:	30c0                	fld	fs0,160(s1)
100004c6:	0000                	unimp
100004c8:	30a0                	fld	fs0,96(s1)
100004ca:	0000                	unimp
100004cc:	30d8                	fld	fa4,160(s1)
100004ce:	0000                	unimp
100004d0:	30f0                	fld	fa2,224(s1)
100004d2:	0000                	unimp
100004d4:	30f0                	fld	fa2,224(s1)
100004d6:	0000                	unimp
100004d8:	30f0                	fld	fa2,224(s1)
100004da:	0000                	unimp
100004dc:	30f0                	fld	fa2,224(s1)
100004de:	0000                	unimp
100004e0:	30f0                	fld	fa2,224(s1)
100004e2:	0000                	unimp
100004e4:	30f0                	fld	fa2,224(s1)
100004e6:	0000                	unimp
100004e8:	30f0                	fld	fa2,224(s1)
100004ea:	0000                	unimp
100004ec:	30f0                	fld	fa2,224(s1)
100004ee:	0000                	unimp
100004f0:	30f0                	fld	fa2,224(s1)
100004f2:	0000                	unimp
100004f4:	30f0                	fld	fa2,224(s1)
100004f6:	0000                	unimp
100004f8:	30cc                	fld	fa1,160(s1)
100004fa:	0000                	unimp
100004fc:	30f0                	fld	fa2,224(s1)
100004fe:	0000                	unimp
10000500:	30f0                	fld	fa2,224(s1)
10000502:	0000                	unimp
10000504:	30f0                	fld	fa2,224(s1)
10000506:	0000                	unimp
10000508:	300c                	fld	fa1,32(s0)
1000050a:	0000                	unimp
1000050c:	30f0                	fld	fa2,224(s1)
1000050e:	0000                	unimp
10000510:	30d8                	fld	fa4,160(s1)
10000512:	0000                	unimp
10000514:	30f0                	fld	fa2,224(s1)
10000516:	0000                	unimp
10000518:	30f0                	fld	fa2,224(s1)
1000051a:	0000                	unimp
1000051c:	30e4                	fld	fs1,224(s1)
1000051e:	0000                	unimp
10000520:	08070607          	0x8070607
10000524:	0a0a0a0b          	0xa0a0a0b

Disassembly of section .bss:

10000528 <__bss_start>:
10000528:	0000                	unimp
	...

1000052c <xfunc_out>:
1000052c:	0000                	unimp
	...

Disassembly of section .stack:

10002000 <__freertos_irq_stack_top-0x2000>:
	...

Disassembly of section .comment:

00000000 <.comment>:
   0:	3a434347          	fmsub.d	ft6,ft6,ft4,ft7,rmm
   4:	2820                	fld	fs0,80(s0)
   6:	20554e47          	fmsub.s	ft8,fa0,ft5,ft4,rmm
   a:	434d                	li	t1,19
   c:	2055                	jal	b0 <trap_entry+0x44>
   e:	6345                	lui	t1,0x11
  10:	696c                	flw	fa1,84(a0)
  12:	7370                	flw	fa2,100(a4)
  14:	2065                	jal	bc <trap_entry+0x50>
  16:	4952                	lw	s2,20(sp)
  18:	562d4353          	0x562d4353
  1c:	4520                	lw	s0,72(a0)
  1e:	626d                	lui	tp,0x1b
  20:	6465                	lui	s0,0x19
  22:	6564                	flw	fs1,76(a0)
  24:	2064                	fld	fs1,192(s0)
  26:	2c434347          	0x2c434347
  2a:	3620                	fld	fs0,104(a2)
  2c:	2d34                	fld	fa3,88(a0)
  2e:	6962                	flw	fs2,24(sp)
  30:	2974                	fld	fa3,208(a0)
  32:	3820                	fld	fs0,112(s0)
  34:	322e                	fld	ft4,232(sp)
  36:	302e                	fld	ft0,232(sp)
	...
