
simple:     file format elf32-littleriscv


Disassembly of section .init:

00000000 <_start>:
   0:	10001197          	auipc	gp,0x10001
   4:	d2018193          	addi	gp,gp,-736 # 10000d20 <__global_pointer$>
   8:	10004117          	auipc	sp,0x10004
   c:	ff810113          	addi	sp,sp,-8 # 10004000 <__freertos_irq_stack_top>
  10:	00000d13          	li	s10,0
  14:	00000d93          	li	s11,0
  18:	00004517          	auipc	a0,0x4
  1c:	80450513          	addi	a0,a0,-2044 # 381c <_data_lma>
  20:	10000597          	auipc	a1,0x10000
  24:	fe058593          	addi	a1,a1,-32 # 10000000 <_data>
  28:	80818613          	addi	a2,gp,-2040 # 10000528 <__bss_start>
  2c:	00c5fc63          	bgeu	a1,a2,44 <_start+0x44>
  30:	00052283          	lw	t0,0(a0)
  34:	0055a023          	sw	t0,0(a1)
  38:	00450513          	addi	a0,a0,4
  3c:	00458593          	addi	a1,a1,4
  40:	fec5e8e3          	bltu	a1,a2,30 <_start+0x30>
  44:	80818513          	addi	a0,gp,-2040 # 10000528 <__bss_start>
  48:	81018593          	addi	a1,gp,-2032 # 10000530 <_end>
  4c:	00b57863          	bgeu	a0,a1,5c <_start+0x5c>
  50:	00052023          	sw	zero,0(a0)
  54:	00450513          	addi	a0,a0,4
  58:	feb56ce3          	bltu	a0,a1,50 <_start+0x50>
  5c:	67d020ef          	jal	ra,2ed8 <_init>
  60:	764010ef          	jal	ra,17c4 <main>
  64:	00100d13          	li	s10,1

00000068 <loop>:
  68:	0000006f          	j	68 <loop>

Disassembly of section .text:

0000006c <trap_entry>:
      6c:	f8010113          	addi	sp,sp,-128
      70:	00112223          	sw	ra,4(sp)
      74:	00212423          	sw	sp,8(sp)
      78:	00312623          	sw	gp,12(sp)
      7c:	00412823          	sw	tp,16(sp)
      80:	00512a23          	sw	t0,20(sp)
      84:	00612c23          	sw	t1,24(sp)
      88:	00712e23          	sw	t2,28(sp)
      8c:	02812023          	sw	s0,32(sp)
      90:	02912223          	sw	s1,36(sp)
      94:	02a12423          	sw	a0,40(sp)
      98:	02b12623          	sw	a1,44(sp)
      9c:	02c12823          	sw	a2,48(sp)
      a0:	02d12a23          	sw	a3,52(sp)
      a4:	02e12c23          	sw	a4,56(sp)
      a8:	02f12e23          	sw	a5,60(sp)
      ac:	05012023          	sw	a6,64(sp)
      b0:	05112223          	sw	a7,68(sp)
      b4:	05212423          	sw	s2,72(sp)
      b8:	05312623          	sw	s3,76(sp)
      bc:	05412823          	sw	s4,80(sp)
      c0:	05512a23          	sw	s5,84(sp)
      c4:	05612c23          	sw	s6,88(sp)
      c8:	05712e23          	sw	s7,92(sp)
      cc:	07812023          	sw	s8,96(sp)
      d0:	07912223          	sw	s9,100(sp)
      d4:	07c12823          	sw	t3,112(sp)
      d8:	07d12a23          	sw	t4,116(sp)
      dc:	07e12c23          	sw	t5,120(sp)
      e0:	07f12e23          	sw	t6,124(sp)
      e4:	34202573          	csrr	a0,mcause
      e8:	5c1020ef          	jal	ra,2ea8 <trap_handler>
      ec:	00412083          	lw	ra,4(sp)
      f0:	00812103          	lw	sp,8(sp)
      f4:	00c12183          	lw	gp,12(sp)
      f8:	01012203          	lw	tp,16(sp)
      fc:	01412283          	lw	t0,20(sp)
     100:	01812303          	lw	t1,24(sp)
     104:	01c12383          	lw	t2,28(sp)
     108:	02012403          	lw	s0,32(sp)
     10c:	02412483          	lw	s1,36(sp)
     110:	02812503          	lw	a0,40(sp)
     114:	02c12583          	lw	a1,44(sp)
     118:	03012603          	lw	a2,48(sp)
     11c:	03412683          	lw	a3,52(sp)
     120:	03812703          	lw	a4,56(sp)
     124:	03c12783          	lw	a5,60(sp)
     128:	04012803          	lw	a6,64(sp)
     12c:	04412883          	lw	a7,68(sp)
     130:	04812903          	lw	s2,72(sp)
     134:	04c12983          	lw	s3,76(sp)
     138:	05012a03          	lw	s4,80(sp)
     13c:	05412a83          	lw	s5,84(sp)
     140:	05812b03          	lw	s6,88(sp)
     144:	05c12b83          	lw	s7,92(sp)
     148:	06012c03          	lw	s8,96(sp)
     14c:	06412c83          	lw	s9,100(sp)
     150:	07012e03          	lw	t3,112(sp)
     154:	07412e83          	lw	t4,116(sp)
     158:	07812f03          	lw	t5,120(sp)
     15c:	07c12f83          	lw	t6,124(sp)
     160:	08010113          	addi	sp,sp,128
     164:	30200073          	mret
     168:	0000006f          	j	168 <trap_entry+0xfc>

0000016c <gpio_init>:
     16c:	ff010113          	addi	sp,sp,-16
     170:	00812623          	sw	s0,12(sp)
     174:	01010413          	addi	s0,sp,16
     178:	400007b7          	lui	a5,0x40000
     17c:	0007a703          	lw	a4,0(a5) # 40000000 <__freertos_irq_stack_top+0x2fffc000>
     180:	400007b7          	lui	a5,0x40000
     184:	00176713          	ori	a4,a4,1
     188:	00e7a023          	sw	a4,0(a5) # 40000000 <__freertos_irq_stack_top+0x2fffc000>
     18c:	400007b7          	lui	a5,0x40000
     190:	0007a703          	lw	a4,0(a5) # 40000000 <__freertos_irq_stack_top+0x2fffc000>
     194:	400007b7          	lui	a5,0x40000
     198:	00476713          	ori	a4,a4,4
     19c:	00e7a023          	sw	a4,0(a5) # 40000000 <__freertos_irq_stack_top+0x2fffc000>
     1a0:	400007b7          	lui	a5,0x40000
     1a4:	0007a703          	lw	a4,0(a5) # 40000000 <__freertos_irq_stack_top+0x2fffc000>
     1a8:	400007b7          	lui	a5,0x40000
     1ac:	01076713          	ori	a4,a4,16
     1b0:	00e7a023          	sw	a4,0(a5) # 40000000 <__freertos_irq_stack_top+0x2fffc000>
     1b4:	400007b7          	lui	a5,0x40000
     1b8:	0007a703          	lw	a4,0(a5) # 40000000 <__freertos_irq_stack_top+0x2fffc000>
     1bc:	400007b7          	lui	a5,0x40000
     1c0:	08076713          	ori	a4,a4,128
     1c4:	00e7a023          	sw	a4,0(a5) # 40000000 <__freertos_irq_stack_top+0x2fffc000>
     1c8:	400007b7          	lui	a5,0x40000
     1cc:	0007a703          	lw	a4,0(a5) # 40000000 <__freertos_irq_stack_top+0x2fffc000>
     1d0:	400007b7          	lui	a5,0x40000
     1d4:	20076713          	ori	a4,a4,512
     1d8:	00e7a023          	sw	a4,0(a5) # 40000000 <__freertos_irq_stack_top+0x2fffc000>
     1dc:	400007b7          	lui	a5,0x40000
     1e0:	0007a683          	lw	a3,0(a5) # 40000000 <__freertos_irq_stack_top+0x2fffc000>
     1e4:	400007b7          	lui	a5,0x40000
     1e8:	00001737          	lui	a4,0x1
     1ec:	80070713          	addi	a4,a4,-2048 # 800 <lcd_configure+0x300>
     1f0:	00e6e733          	or	a4,a3,a4
     1f4:	00e7a023          	sw	a4,0(a5) # 40000000 <__freertos_irq_stack_top+0x2fffc000>
     1f8:	400007b7          	lui	a5,0x40000
     1fc:	0007a683          	lw	a3,0(a5) # 40000000 <__freertos_irq_stack_top+0x2fffc000>
     200:	400007b7          	lui	a5,0x40000
     204:	00002737          	lui	a4,0x2
     208:	00e6e733          	or	a4,a3,a4
     20c:	00e7a023          	sw	a4,0(a5) # 40000000 <__freertos_irq_stack_top+0x2fffc000>
     210:	400007b7          	lui	a5,0x40000
     214:	0007a683          	lw	a3,0(a5) # 40000000 <__freertos_irq_stack_top+0x2fffc000>
     218:	400007b7          	lui	a5,0x40000
     21c:	00008737          	lui	a4,0x8
     220:	00e6e733          	or	a4,a3,a4
     224:	00e7a023          	sw	a4,0(a5) # 40000000 <__freertos_irq_stack_top+0x2fffc000>
     228:	400007b7          	lui	a5,0x40000
     22c:	0007a683          	lw	a3,0(a5) # 40000000 <__freertos_irq_stack_top+0x2fffc000>
     230:	400007b7          	lui	a5,0x40000
     234:	00010737          	lui	a4,0x10
     238:	00e6e733          	or	a4,a3,a4
     23c:	00e7a023          	sw	a4,0(a5) # 40000000 <__freertos_irq_stack_top+0x2fffc000>
     240:	400007b7          	lui	a5,0x40000
     244:	0007a683          	lw	a3,0(a5) # 40000000 <__freertos_irq_stack_top+0x2fffc000>
     248:	400007b7          	lui	a5,0x40000
     24c:	00040737          	lui	a4,0x40
     250:	00e6e733          	or	a4,a3,a4
     254:	00e7a023          	sw	a4,0(a5) # 40000000 <__freertos_irq_stack_top+0x2fffc000>
     258:	400007b7          	lui	a5,0x40000
     25c:	0007a683          	lw	a3,0(a5) # 40000000 <__freertos_irq_stack_top+0x2fffc000>
     260:	400007b7          	lui	a5,0x40000
     264:	00100737          	lui	a4,0x100
     268:	00e6e733          	or	a4,a3,a4
     26c:	00e7a023          	sw	a4,0(a5) # 40000000 <__freertos_irq_stack_top+0x2fffc000>
     270:	400007b7          	lui	a5,0x40000
     274:	0007a683          	lw	a3,0(a5) # 40000000 <__freertos_irq_stack_top+0x2fffc000>
     278:	400007b7          	lui	a5,0x40000
     27c:	00400737          	lui	a4,0x400
     280:	00e6e733          	or	a4,a3,a4
     284:	00e7a023          	sw	a4,0(a5) # 40000000 <__freertos_irq_stack_top+0x2fffc000>
     288:	400007b7          	lui	a5,0x40000
     28c:	0007a683          	lw	a3,0(a5) # 40000000 <__freertos_irq_stack_top+0x2fffc000>
     290:	400007b7          	lui	a5,0x40000
     294:	01000737          	lui	a4,0x1000
     298:	00e6e733          	or	a4,a3,a4
     29c:	00e7a023          	sw	a4,0(a5) # 40000000 <__freertos_irq_stack_top+0x2fffc000>
     2a0:	400007b7          	lui	a5,0x40000
     2a4:	0007a683          	lw	a3,0(a5) # 40000000 <__freertos_irq_stack_top+0x2fffc000>
     2a8:	400007b7          	lui	a5,0x40000
     2ac:	04000737          	lui	a4,0x4000
     2b0:	00e6e733          	or	a4,a3,a4
     2b4:	00e7a023          	sw	a4,0(a5) # 40000000 <__freertos_irq_stack_top+0x2fffc000>
     2b8:	400007b7          	lui	a5,0x40000
     2bc:	0007a683          	lw	a3,0(a5) # 40000000 <__freertos_irq_stack_top+0x2fffc000>
     2c0:	400007b7          	lui	a5,0x40000
     2c4:	10000737          	lui	a4,0x10000
     2c8:	00e6e733          	or	a4,a3,a4
     2cc:	00e7a023          	sw	a4,0(a5) # 40000000 <__freertos_irq_stack_top+0x2fffc000>
     2d0:	400007b7          	lui	a5,0x40000
     2d4:	0007a683          	lw	a3,0(a5) # 40000000 <__freertos_irq_stack_top+0x2fffc000>
     2d8:	400007b7          	lui	a5,0x40000
     2dc:	40000737          	lui	a4,0x40000
     2e0:	00e6e733          	or	a4,a3,a4
     2e4:	00e7a023          	sw	a4,0(a5) # 40000000 <__freertos_irq_stack_top+0x2fffc000>
     2e8:	400007b7          	lui	a5,0x40000
     2ec:	00478793          	addi	a5,a5,4 # 40000004 <__freertos_irq_stack_top+0x2fffc004>
     2f0:	0007a703          	lw	a4,0(a5)
     2f4:	400007b7          	lui	a5,0x40000
     2f8:	00478793          	addi	a5,a5,4 # 40000004 <__freertos_irq_stack_top+0x2fffc004>
     2fc:	ffb77713          	andi	a4,a4,-5
     300:	00e7a023          	sw	a4,0(a5)
     304:	400007b7          	lui	a5,0x40000
     308:	00478793          	addi	a5,a5,4 # 40000004 <__freertos_irq_stack_top+0x2fffc004>
     30c:	0007a683          	lw	a3,0(a5)
     310:	400007b7          	lui	a5,0x40000
     314:	00478793          	addi	a5,a5,4 # 40000004 <__freertos_irq_stack_top+0x2fffc004>
     318:	00002737          	lui	a4,0x2
     31c:	00e6e733          	or	a4,a3,a4
     320:	00e7a023          	sw	a4,0(a5)
     324:	400007b7          	lui	a5,0x40000
     328:	00478793          	addi	a5,a5,4 # 40000004 <__freertos_irq_stack_top+0x2fffc004>
     32c:	0007a703          	lw	a4,0(a5)
     330:	400007b7          	lui	a5,0x40000
     334:	00478793          	addi	a5,a5,4 # 40000004 <__freertos_irq_stack_top+0x2fffc004>
     338:	10076713          	ori	a4,a4,256
     33c:	00e7a023          	sw	a4,0(a5)
     340:	400007b7          	lui	a5,0x40000
     344:	00478793          	addi	a5,a5,4 # 40000004 <__freertos_irq_stack_top+0x2fffc004>
     348:	0007a703          	lw	a4,0(a5)
     34c:	400007b7          	lui	a5,0x40000
     350:	00478793          	addi	a5,a5,4 # 40000004 <__freertos_irq_stack_top+0x2fffc004>
     354:	dff77713          	andi	a4,a4,-513
     358:	00e7a023          	sw	a4,0(a5)
     35c:	400007b7          	lui	a5,0x40000
     360:	00478793          	addi	a5,a5,4 # 40000004 <__freertos_irq_stack_top+0x2fffc004>
     364:	0007a703          	lw	a4,0(a5)
     368:	400007b7          	lui	a5,0x40000
     36c:	00478793          	addi	a5,a5,4 # 40000004 <__freertos_irq_stack_top+0x2fffc004>
     370:	40076713          	ori	a4,a4,1024
     374:	00e7a023          	sw	a4,0(a5)
     378:	400007b7          	lui	a5,0x40000
     37c:	00478793          	addi	a5,a5,4 # 40000004 <__freertos_irq_stack_top+0x2fffc004>
     380:	0007a683          	lw	a3,0(a5)
     384:	400007b7          	lui	a5,0x40000
     388:	00478793          	addi	a5,a5,4 # 40000004 <__freertos_irq_stack_top+0x2fffc004>
     38c:	fffff737          	lui	a4,0xfffff
     390:	7ff70713          	addi	a4,a4,2047 # fffff7ff <__freertos_irq_stack_top+0xefffb7ff>
     394:	00e6f733          	and	a4,a3,a4
     398:	00e7a023          	sw	a4,0(a5)
     39c:	00000013          	nop
     3a0:	00c12403          	lw	s0,12(sp)
     3a4:	01010113          	addi	sp,sp,16
     3a8:	00008067          	ret

000003ac <lcd_write>:
     3ac:	fe010113          	addi	sp,sp,-32
     3b0:	00112e23          	sw	ra,28(sp)
     3b4:	00812c23          	sw	s0,24(sp)
     3b8:	02010413          	addi	s0,sp,32
     3bc:	00050793          	mv	a5,a0
     3c0:	fef407a3          	sb	a5,-17(s0)
     3c4:	fef44783          	lbu	a5,-17(s0)
     3c8:	00078513          	mv	a0,a5
     3cc:	314030ef          	jal	ra,36e0 <spi_write_byte>
     3d0:	00000013          	nop
     3d4:	01c12083          	lw	ra,28(sp)
     3d8:	01812403          	lw	s0,24(sp)
     3dc:	02010113          	addi	sp,sp,32
     3e0:	00008067          	ret

000003e4 <lcd_reset>:
     3e4:	ff010113          	addi	sp,sp,-16
     3e8:	00112623          	sw	ra,12(sp)
     3ec:	00812423          	sw	s0,8(sp)
     3f0:	01010413          	addi	s0,sp,16
     3f4:	400007b7          	lui	a5,0x40000
     3f8:	00478793          	addi	a5,a5,4 # 40000004 <__freertos_irq_stack_top+0x2fffc004>
     3fc:	0007a703          	lw	a4,0(a5)
     400:	400007b7          	lui	a5,0x40000
     404:	00478793          	addi	a5,a5,4 # 40000004 <__freertos_irq_stack_top+0x2fffc004>
     408:	ffd77713          	andi	a4,a4,-3
     40c:	00e7a023          	sw	a4,0(a5)
     410:	000187b7          	lui	a5,0x18
     414:	6a078513          	addi	a0,a5,1696 # 186a0 <_data_lma+0x14e84>
     418:	375020ef          	jal	ra,2f8c <busy_wait>
     41c:	400007b7          	lui	a5,0x40000
     420:	00478793          	addi	a5,a5,4 # 40000004 <__freertos_irq_stack_top+0x2fffc004>
     424:	0007a703          	lw	a4,0(a5)
     428:	400007b7          	lui	a5,0x40000
     42c:	00478793          	addi	a5,a5,4 # 40000004 <__freertos_irq_stack_top+0x2fffc004>
     430:	00276713          	ori	a4,a4,2
     434:	00e7a023          	sw	a4,0(a5)
     438:	000187b7          	lui	a5,0x18
     43c:	6a078513          	addi	a0,a5,1696 # 186a0 <_data_lma+0x14e84>
     440:	34d020ef          	jal	ra,2f8c <busy_wait>
     444:	00000013          	nop
     448:	00c12083          	lw	ra,12(sp)
     44c:	00812403          	lw	s0,8(sp)
     450:	01010113          	addi	sp,sp,16
     454:	00008067          	ret

00000458 <lcd_write_command>:
     458:	fe010113          	addi	sp,sp,-32
     45c:	00112e23          	sw	ra,28(sp)
     460:	00812c23          	sw	s0,24(sp)
     464:	02010413          	addi	s0,sp,32
     468:	00050793          	mv	a5,a0
     46c:	fef407a3          	sb	a5,-17(s0)
     470:	400007b7          	lui	a5,0x40000
     474:	00478793          	addi	a5,a5,4 # 40000004 <__freertos_irq_stack_top+0x2fffc004>
     478:	0007a703          	lw	a4,0(a5)
     47c:	400007b7          	lui	a5,0x40000
     480:	00478793          	addi	a5,a5,4 # 40000004 <__freertos_irq_stack_top+0x2fffc004>
     484:	ffe77713          	andi	a4,a4,-2
     488:	00e7a023          	sw	a4,0(a5)
     48c:	fef44783          	lbu	a5,-17(s0)
     490:	00078513          	mv	a0,a5
     494:	f19ff0ef          	jal	ra,3ac <lcd_write>
     498:	00000013          	nop
     49c:	01c12083          	lw	ra,28(sp)
     4a0:	01812403          	lw	s0,24(sp)
     4a4:	02010113          	addi	sp,sp,32
     4a8:	00008067          	ret

000004ac <lcd_write_data>:
     4ac:	fe010113          	addi	sp,sp,-32
     4b0:	00112e23          	sw	ra,28(sp)
     4b4:	00812c23          	sw	s0,24(sp)
     4b8:	02010413          	addi	s0,sp,32
     4bc:	00050793          	mv	a5,a0
     4c0:	fef407a3          	sb	a5,-17(s0)
     4c4:	400007b7          	lui	a5,0x40000
     4c8:	00478793          	addi	a5,a5,4 # 40000004 <__freertos_irq_stack_top+0x2fffc004>
     4cc:	0007a703          	lw	a4,0(a5)
     4d0:	400007b7          	lui	a5,0x40000
     4d4:	00478793          	addi	a5,a5,4 # 40000004 <__freertos_irq_stack_top+0x2fffc004>
     4d8:	00176713          	ori	a4,a4,1
     4dc:	00e7a023          	sw	a4,0(a5)
     4e0:	fef44783          	lbu	a5,-17(s0)
     4e4:	00078513          	mv	a0,a5
     4e8:	ec5ff0ef          	jal	ra,3ac <lcd_write>
     4ec:	00000013          	nop
     4f0:	01c12083          	lw	ra,28(sp)
     4f4:	01812403          	lw	s0,24(sp)
     4f8:	02010113          	addi	sp,sp,32
     4fc:	00008067          	ret

00000500 <lcd_configure>:
     500:	ff010113          	addi	sp,sp,-16
     504:	00112623          	sw	ra,12(sp)
     508:	00812423          	sw	s0,8(sp)
     50c:	01010413          	addi	s0,sp,16
     510:	3e800513          	li	a0,1000
     514:	279020ef          	jal	ra,2f8c <busy_wait>
     518:	0cf00513          	li	a0,207
     51c:	f3dff0ef          	jal	ra,458 <lcd_write_command>
     520:	00000513          	li	a0,0
     524:	f89ff0ef          	jal	ra,4ac <lcd_write_data>
     528:	0c100513          	li	a0,193
     52c:	f81ff0ef          	jal	ra,4ac <lcd_write_data>
     530:	03000513          	li	a0,48
     534:	f79ff0ef          	jal	ra,4ac <lcd_write_data>
     538:	3e800513          	li	a0,1000
     53c:	251020ef          	jal	ra,2f8c <busy_wait>
     540:	0ed00513          	li	a0,237
     544:	f15ff0ef          	jal	ra,458 <lcd_write_command>
     548:	06400513          	li	a0,100
     54c:	f61ff0ef          	jal	ra,4ac <lcd_write_data>
     550:	00300513          	li	a0,3
     554:	f59ff0ef          	jal	ra,4ac <lcd_write_data>
     558:	01200513          	li	a0,18
     55c:	f51ff0ef          	jal	ra,4ac <lcd_write_data>
     560:	08100513          	li	a0,129
     564:	f49ff0ef          	jal	ra,4ac <lcd_write_data>
     568:	3e800513          	li	a0,1000
     56c:	221020ef          	jal	ra,2f8c <busy_wait>
     570:	0e800513          	li	a0,232
     574:	ee5ff0ef          	jal	ra,458 <lcd_write_command>
     578:	08500513          	li	a0,133
     57c:	f31ff0ef          	jal	ra,4ac <lcd_write_data>
     580:	01000513          	li	a0,16
     584:	f29ff0ef          	jal	ra,4ac <lcd_write_data>
     588:	07a00513          	li	a0,122
     58c:	f21ff0ef          	jal	ra,4ac <lcd_write_data>
     590:	3e800513          	li	a0,1000
     594:	1f9020ef          	jal	ra,2f8c <busy_wait>
     598:	0cb00513          	li	a0,203
     59c:	ebdff0ef          	jal	ra,458 <lcd_write_command>
     5a0:	03900513          	li	a0,57
     5a4:	f09ff0ef          	jal	ra,4ac <lcd_write_data>
     5a8:	02c00513          	li	a0,44
     5ac:	f01ff0ef          	jal	ra,4ac <lcd_write_data>
     5b0:	00000513          	li	a0,0
     5b4:	ef9ff0ef          	jal	ra,4ac <lcd_write_data>
     5b8:	03400513          	li	a0,52
     5bc:	ef1ff0ef          	jal	ra,4ac <lcd_write_data>
     5c0:	00200513          	li	a0,2
     5c4:	ee9ff0ef          	jal	ra,4ac <lcd_write_data>
     5c8:	3e800513          	li	a0,1000
     5cc:	1c1020ef          	jal	ra,2f8c <busy_wait>
     5d0:	0f700513          	li	a0,247
     5d4:	e85ff0ef          	jal	ra,458 <lcd_write_command>
     5d8:	02000513          	li	a0,32
     5dc:	ed1ff0ef          	jal	ra,4ac <lcd_write_data>
     5e0:	3e800513          	li	a0,1000
     5e4:	1a9020ef          	jal	ra,2f8c <busy_wait>
     5e8:	0ea00513          	li	a0,234
     5ec:	e6dff0ef          	jal	ra,458 <lcd_write_command>
     5f0:	00000513          	li	a0,0
     5f4:	eb9ff0ef          	jal	ra,4ac <lcd_write_data>
     5f8:	00000513          	li	a0,0
     5fc:	eb1ff0ef          	jal	ra,4ac <lcd_write_data>
     600:	3e800513          	li	a0,1000
     604:	189020ef          	jal	ra,2f8c <busy_wait>
     608:	0c000513          	li	a0,192
     60c:	e4dff0ef          	jal	ra,458 <lcd_write_command>
     610:	01b00513          	li	a0,27
     614:	e99ff0ef          	jal	ra,4ac <lcd_write_data>
     618:	3e800513          	li	a0,1000
     61c:	171020ef          	jal	ra,2f8c <busy_wait>
     620:	0c100513          	li	a0,193
     624:	e35ff0ef          	jal	ra,458 <lcd_write_command>
     628:	00100513          	li	a0,1
     62c:	e81ff0ef          	jal	ra,4ac <lcd_write_data>
     630:	3e800513          	li	a0,1000
     634:	159020ef          	jal	ra,2f8c <busy_wait>
     638:	0c500513          	li	a0,197
     63c:	e1dff0ef          	jal	ra,458 <lcd_write_command>
     640:	03000513          	li	a0,48
     644:	e69ff0ef          	jal	ra,4ac <lcd_write_data>
     648:	03000513          	li	a0,48
     64c:	e61ff0ef          	jal	ra,4ac <lcd_write_data>
     650:	3e800513          	li	a0,1000
     654:	139020ef          	jal	ra,2f8c <busy_wait>
     658:	0c700513          	li	a0,199
     65c:	dfdff0ef          	jal	ra,458 <lcd_write_command>
     660:	0b700513          	li	a0,183
     664:	e49ff0ef          	jal	ra,4ac <lcd_write_data>
     668:	3e800513          	li	a0,1000
     66c:	121020ef          	jal	ra,2f8c <busy_wait>
     670:	03600513          	li	a0,54
     674:	de5ff0ef          	jal	ra,458 <lcd_write_command>
     678:	04800513          	li	a0,72
     67c:	e31ff0ef          	jal	ra,4ac <lcd_write_data>
     680:	3e800513          	li	a0,1000
     684:	109020ef          	jal	ra,2f8c <busy_wait>
     688:	03a00513          	li	a0,58
     68c:	dcdff0ef          	jal	ra,458 <lcd_write_command>
     690:	05500513          	li	a0,85
     694:	e19ff0ef          	jal	ra,4ac <lcd_write_data>
     698:	3e800513          	li	a0,1000
     69c:	0f1020ef          	jal	ra,2f8c <busy_wait>
     6a0:	0b100513          	li	a0,177
     6a4:	db5ff0ef          	jal	ra,458 <lcd_write_command>
     6a8:	00000513          	li	a0,0
     6ac:	e01ff0ef          	jal	ra,4ac <lcd_write_data>
     6b0:	01a00513          	li	a0,26
     6b4:	df9ff0ef          	jal	ra,4ac <lcd_write_data>
     6b8:	3e800513          	li	a0,1000
     6bc:	0d1020ef          	jal	ra,2f8c <busy_wait>
     6c0:	0b600513          	li	a0,182
     6c4:	d95ff0ef          	jal	ra,458 <lcd_write_command>
     6c8:	00a00513          	li	a0,10
     6cc:	de1ff0ef          	jal	ra,4ac <lcd_write_data>
     6d0:	0a200513          	li	a0,162
     6d4:	dd9ff0ef          	jal	ra,4ac <lcd_write_data>
     6d8:	3e800513          	li	a0,1000
     6dc:	0b1020ef          	jal	ra,2f8c <busy_wait>
     6e0:	0f200513          	li	a0,242
     6e4:	d75ff0ef          	jal	ra,458 <lcd_write_command>
     6e8:	00000513          	li	a0,0
     6ec:	dc1ff0ef          	jal	ra,4ac <lcd_write_data>
     6f0:	3e800513          	li	a0,1000
     6f4:	099020ef          	jal	ra,2f8c <busy_wait>
     6f8:	02600513          	li	a0,38
     6fc:	d5dff0ef          	jal	ra,458 <lcd_write_command>
     700:	00100513          	li	a0,1
     704:	da9ff0ef          	jal	ra,4ac <lcd_write_data>
     708:	3e800513          	li	a0,1000
     70c:	081020ef          	jal	ra,2f8c <busy_wait>
     710:	0e000513          	li	a0,224
     714:	d45ff0ef          	jal	ra,458 <lcd_write_command>
     718:	00f00513          	li	a0,15
     71c:	d91ff0ef          	jal	ra,4ac <lcd_write_data>
     720:	02a00513          	li	a0,42
     724:	d89ff0ef          	jal	ra,4ac <lcd_write_data>
     728:	02800513          	li	a0,40
     72c:	d81ff0ef          	jal	ra,4ac <lcd_write_data>
     730:	00800513          	li	a0,8
     734:	d79ff0ef          	jal	ra,4ac <lcd_write_data>
     738:	00e00513          	li	a0,14
     73c:	d71ff0ef          	jal	ra,4ac <lcd_write_data>
     740:	00800513          	li	a0,8
     744:	d69ff0ef          	jal	ra,4ac <lcd_write_data>
     748:	05400513          	li	a0,84
     74c:	d61ff0ef          	jal	ra,4ac <lcd_write_data>
     750:	0a900513          	li	a0,169
     754:	d59ff0ef          	jal	ra,4ac <lcd_write_data>
     758:	04300513          	li	a0,67
     75c:	d51ff0ef          	jal	ra,4ac <lcd_write_data>
     760:	00a00513          	li	a0,10
     764:	d49ff0ef          	jal	ra,4ac <lcd_write_data>
     768:	00f00513          	li	a0,15
     76c:	d41ff0ef          	jal	ra,4ac <lcd_write_data>
     770:	00000513          	li	a0,0
     774:	d39ff0ef          	jal	ra,4ac <lcd_write_data>
     778:	00000513          	li	a0,0
     77c:	d31ff0ef          	jal	ra,4ac <lcd_write_data>
     780:	00000513          	li	a0,0
     784:	d29ff0ef          	jal	ra,4ac <lcd_write_data>
     788:	00000513          	li	a0,0
     78c:	d21ff0ef          	jal	ra,4ac <lcd_write_data>
     790:	3e800513          	li	a0,1000
     794:	7f8020ef          	jal	ra,2f8c <busy_wait>
     798:	0e100513          	li	a0,225
     79c:	cbdff0ef          	jal	ra,458 <lcd_write_command>
     7a0:	00000513          	li	a0,0
     7a4:	d09ff0ef          	jal	ra,4ac <lcd_write_data>
     7a8:	01500513          	li	a0,21
     7ac:	d01ff0ef          	jal	ra,4ac <lcd_write_data>
     7b0:	01700513          	li	a0,23
     7b4:	cf9ff0ef          	jal	ra,4ac <lcd_write_data>
     7b8:	00700513          	li	a0,7
     7bc:	cf1ff0ef          	jal	ra,4ac <lcd_write_data>
     7c0:	01100513          	li	a0,17
     7c4:	ce9ff0ef          	jal	ra,4ac <lcd_write_data>
     7c8:	00600513          	li	a0,6
     7cc:	ce1ff0ef          	jal	ra,4ac <lcd_write_data>
     7d0:	02b00513          	li	a0,43
     7d4:	cd9ff0ef          	jal	ra,4ac <lcd_write_data>
     7d8:	05600513          	li	a0,86
     7dc:	cd1ff0ef          	jal	ra,4ac <lcd_write_data>
     7e0:	03c00513          	li	a0,60
     7e4:	cc9ff0ef          	jal	ra,4ac <lcd_write_data>
     7e8:	00500513          	li	a0,5
     7ec:	cc1ff0ef          	jal	ra,4ac <lcd_write_data>
     7f0:	01000513          	li	a0,16
     7f4:	cb9ff0ef          	jal	ra,4ac <lcd_write_data>
     7f8:	00f00513          	li	a0,15
     7fc:	cb1ff0ef          	jal	ra,4ac <lcd_write_data>
     800:	03f00513          	li	a0,63
     804:	ca9ff0ef          	jal	ra,4ac <lcd_write_data>
     808:	03f00513          	li	a0,63
     80c:	ca1ff0ef          	jal	ra,4ac <lcd_write_data>
     810:	00f00513          	li	a0,15
     814:	c99ff0ef          	jal	ra,4ac <lcd_write_data>
     818:	3e800513          	li	a0,1000
     81c:	770020ef          	jal	ra,2f8c <busy_wait>
     820:	02b00513          	li	a0,43
     824:	c35ff0ef          	jal	ra,458 <lcd_write_command>
     828:	00000513          	li	a0,0
     82c:	c81ff0ef          	jal	ra,4ac <lcd_write_data>
     830:	00000513          	li	a0,0
     834:	c79ff0ef          	jal	ra,4ac <lcd_write_data>
     838:	00100513          	li	a0,1
     83c:	c71ff0ef          	jal	ra,4ac <lcd_write_data>
     840:	03f00513          	li	a0,63
     844:	c69ff0ef          	jal	ra,4ac <lcd_write_data>
     848:	3e800513          	li	a0,1000
     84c:	740020ef          	jal	ra,2f8c <busy_wait>
     850:	02a00513          	li	a0,42
     854:	c05ff0ef          	jal	ra,458 <lcd_write_command>
     858:	00000513          	li	a0,0
     85c:	c51ff0ef          	jal	ra,4ac <lcd_write_data>
     860:	00000513          	li	a0,0
     864:	c49ff0ef          	jal	ra,4ac <lcd_write_data>
     868:	00000513          	li	a0,0
     86c:	c41ff0ef          	jal	ra,4ac <lcd_write_data>
     870:	0ef00513          	li	a0,239
     874:	c39ff0ef          	jal	ra,4ac <lcd_write_data>
     878:	3e800513          	li	a0,1000
     87c:	710020ef          	jal	ra,2f8c <busy_wait>
     880:	01100513          	li	a0,17
     884:	bd5ff0ef          	jal	ra,458 <lcd_write_command>
     888:	000497b7          	lui	a5,0x49
     88c:	3e078513          	addi	a0,a5,992 # 493e0 <_data_lma+0x45bc4>
     890:	6fc020ef          	jal	ra,2f8c <busy_wait>
     894:	02900513          	li	a0,41
     898:	bc1ff0ef          	jal	ra,458 <lcd_write_command>
     89c:	00000013          	nop
     8a0:	00c12083          	lw	ra,12(sp)
     8a4:	00812403          	lw	s0,8(sp)
     8a8:	01010113          	addi	sp,sp,16
     8ac:	00008067          	ret

000008b0 <lcd_set_windows>:
     8b0:	fe010113          	addi	sp,sp,-32
     8b4:	00112e23          	sw	ra,28(sp)
     8b8:	00812c23          	sw	s0,24(sp)
     8bc:	02010413          	addi	s0,sp,32
     8c0:	00050793          	mv	a5,a0
     8c4:	00068713          	mv	a4,a3
     8c8:	fef41723          	sh	a5,-18(s0)
     8cc:	00058793          	mv	a5,a1
     8d0:	fef41623          	sh	a5,-20(s0)
     8d4:	00060793          	mv	a5,a2
     8d8:	fef41523          	sh	a5,-22(s0)
     8dc:	00070793          	mv	a5,a4
     8e0:	fef41423          	sh	a5,-24(s0)
     8e4:	02a00513          	li	a0,42
     8e8:	b71ff0ef          	jal	ra,458 <lcd_write_command>
     8ec:	fee45783          	lhu	a5,-18(s0)
     8f0:	0087d793          	srli	a5,a5,0x8
     8f4:	01079793          	slli	a5,a5,0x10
     8f8:	0107d793          	srli	a5,a5,0x10
     8fc:	0ff7f793          	andi	a5,a5,255
     900:	00078513          	mv	a0,a5
     904:	ba9ff0ef          	jal	ra,4ac <lcd_write_data>
     908:	fee45783          	lhu	a5,-18(s0)
     90c:	0ff7f793          	andi	a5,a5,255
     910:	00078513          	mv	a0,a5
     914:	b99ff0ef          	jal	ra,4ac <lcd_write_data>
     918:	fea45783          	lhu	a5,-22(s0)
     91c:	0087d793          	srli	a5,a5,0x8
     920:	01079793          	slli	a5,a5,0x10
     924:	0107d793          	srli	a5,a5,0x10
     928:	0ff7f793          	andi	a5,a5,255
     92c:	00078513          	mv	a0,a5
     930:	b7dff0ef          	jal	ra,4ac <lcd_write_data>
     934:	fea45783          	lhu	a5,-22(s0)
     938:	0ff7f793          	andi	a5,a5,255
     93c:	00078513          	mv	a0,a5
     940:	b6dff0ef          	jal	ra,4ac <lcd_write_data>
     944:	02b00513          	li	a0,43
     948:	b11ff0ef          	jal	ra,458 <lcd_write_command>
     94c:	fec45783          	lhu	a5,-20(s0)
     950:	0087d793          	srli	a5,a5,0x8
     954:	01079793          	slli	a5,a5,0x10
     958:	0107d793          	srli	a5,a5,0x10
     95c:	0ff7f793          	andi	a5,a5,255
     960:	00078513          	mv	a0,a5
     964:	b49ff0ef          	jal	ra,4ac <lcd_write_data>
     968:	fec45783          	lhu	a5,-20(s0)
     96c:	0ff7f793          	andi	a5,a5,255
     970:	00078513          	mv	a0,a5
     974:	b39ff0ef          	jal	ra,4ac <lcd_write_data>
     978:	fe845783          	lhu	a5,-24(s0)
     97c:	0087d793          	srli	a5,a5,0x8
     980:	01079793          	slli	a5,a5,0x10
     984:	0107d793          	srli	a5,a5,0x10
     988:	0ff7f793          	andi	a5,a5,255
     98c:	00078513          	mv	a0,a5
     990:	b1dff0ef          	jal	ra,4ac <lcd_write_data>
     994:	fe845783          	lhu	a5,-24(s0)
     998:	0ff7f793          	andi	a5,a5,255
     99c:	00078513          	mv	a0,a5
     9a0:	b0dff0ef          	jal	ra,4ac <lcd_write_data>
     9a4:	02c00513          	li	a0,44
     9a8:	ab1ff0ef          	jal	ra,458 <lcd_write_command>
     9ac:	00000013          	nop
     9b0:	01c12083          	lw	ra,28(sp)
     9b4:	01812403          	lw	s0,24(sp)
     9b8:	02010113          	addi	sp,sp,32
     9bc:	00008067          	ret

000009c0 <lcd_write_gram>:
     9c0:	fe010113          	addi	sp,sp,-32
     9c4:	00112e23          	sw	ra,28(sp)
     9c8:	00812c23          	sw	s0,24(sp)
     9cc:	02010413          	addi	s0,sp,32
     9d0:	00050793          	mv	a5,a0
     9d4:	fef41723          	sh	a5,-18(s0)
     9d8:	fee45783          	lhu	a5,-18(s0)
     9dc:	0087d793          	srli	a5,a5,0x8
     9e0:	01079793          	slli	a5,a5,0x10
     9e4:	0107d793          	srli	a5,a5,0x10
     9e8:	0ff7f793          	andi	a5,a5,255
     9ec:	00078513          	mv	a0,a5
     9f0:	abdff0ef          	jal	ra,4ac <lcd_write_data>
     9f4:	fee45783          	lhu	a5,-18(s0)
     9f8:	0ff7f793          	andi	a5,a5,255
     9fc:	00078513          	mv	a0,a5
     a00:	aadff0ef          	jal	ra,4ac <lcd_write_data>
     a04:	00000013          	nop
     a08:	01c12083          	lw	ra,28(sp)
     a0c:	01812403          	lw	s0,24(sp)
     a10:	02010113          	addi	sp,sp,32
     a14:	00008067          	ret

00000a18 <lcd_init>:
     a18:	ff010113          	addi	sp,sp,-16
     a1c:	00112623          	sw	ra,12(sp)
     a20:	00812423          	sw	s0,8(sp)
     a24:	01010413          	addi	s0,sp,16
     a28:	9bdff0ef          	jal	ra,3e4 <lcd_reset>
     a2c:	ad5ff0ef          	jal	ra,500 <lcd_configure>
     a30:	00000013          	nop
     a34:	00c12083          	lw	ra,12(sp)
     a38:	00812403          	lw	s0,8(sp)
     a3c:	01010113          	addi	sp,sp,16
     a40:	00008067          	ret

00000a44 <lcd_clear>:
     a44:	fd010113          	addi	sp,sp,-48
     a48:	02112623          	sw	ra,44(sp)
     a4c:	02812423          	sw	s0,40(sp)
     a50:	03010413          	addi	s0,sp,48
     a54:	00050793          	mv	a5,a0
     a58:	fcf41f23          	sh	a5,-34(s0)
     a5c:	13f00693          	li	a3,319
     a60:	0ef00613          	li	a2,239
     a64:	00000593          	li	a1,0
     a68:	00000513          	li	a0,0
     a6c:	e45ff0ef          	jal	ra,8b0 <lcd_set_windows>
     a70:	fe042623          	sw	zero,-20(s0)
     a74:	03c0006f          	j	ab0 <lcd_clear+0x6c>
     a78:	fe042423          	sw	zero,-24(s0)
     a7c:	01c0006f          	j	a98 <lcd_clear+0x54>
     a80:	fde45783          	lhu	a5,-34(s0)
     a84:	00078513          	mv	a0,a5
     a88:	f39ff0ef          	jal	ra,9c0 <lcd_write_gram>
     a8c:	fe842783          	lw	a5,-24(s0)
     a90:	00178793          	addi	a5,a5,1
     a94:	fef42423          	sw	a5,-24(s0)
     a98:	fe842703          	lw	a4,-24(s0)
     a9c:	13f00793          	li	a5,319
     aa0:	fee7d0e3          	bge	a5,a4,a80 <lcd_clear+0x3c>
     aa4:	fec42783          	lw	a5,-20(s0)
     aa8:	00178793          	addi	a5,a5,1
     aac:	fef42623          	sw	a5,-20(s0)
     ab0:	fec42703          	lw	a4,-20(s0)
     ab4:	0ef00793          	li	a5,239
     ab8:	fce7d0e3          	bge	a5,a4,a78 <lcd_clear+0x34>
     abc:	00000013          	nop
     ac0:	02c12083          	lw	ra,44(sp)
     ac4:	02812403          	lw	s0,40(sp)
     ac8:	03010113          	addi	sp,sp,48
     acc:	00008067          	ret

00000ad0 <lcd_draw_rect>:
     ad0:	fd010113          	addi	sp,sp,-48
     ad4:	02112623          	sw	ra,44(sp)
     ad8:	02812423          	sw	s0,40(sp)
     adc:	03010413          	addi	s0,sp,48
     ae0:	00050793          	mv	a5,a0
     ae4:	fcf41f23          	sh	a5,-34(s0)
     ae8:	00058793          	mv	a5,a1
     aec:	fcf41e23          	sh	a5,-36(s0)
     af0:	00060793          	mv	a5,a2
     af4:	fcf41d23          	sh	a5,-38(s0)
     af8:	00068793          	mv	a5,a3
     afc:	fcf41c23          	sh	a5,-40(s0)
     b00:	00070793          	mv	a5,a4
     b04:	fcf41b23          	sh	a5,-42(s0)
     b08:	fdc45783          	lhu	a5,-36(s0)
     b0c:	fef403a3          	sb	a5,-25(s0)
     b10:	fde45703          	lhu	a4,-34(s0)
     b14:	fda45783          	lhu	a5,-38(s0)
     b18:	00f707b3          	add	a5,a4,a5
     b1c:	01079793          	slli	a5,a5,0x10
     b20:	0107d793          	srli	a5,a5,0x10
     b24:	14000713          	li	a4,320
     b28:	40f707b3          	sub	a5,a4,a5
     b2c:	fcf41e23          	sh	a5,-36(s0)
     b30:	fe744783          	lbu	a5,-25(s0)
     b34:	fcf41f23          	sh	a5,-34(s0)
     b38:	fde45703          	lhu	a4,-34(s0)
     b3c:	fd845783          	lhu	a5,-40(s0)
     b40:	00f707b3          	add	a5,a4,a5
     b44:	01079793          	slli	a5,a5,0x10
     b48:	0107d793          	srli	a5,a5,0x10
     b4c:	fff78793          	addi	a5,a5,-1
     b50:	01079613          	slli	a2,a5,0x10
     b54:	01065613          	srli	a2,a2,0x10
     b58:	fdc45703          	lhu	a4,-36(s0)
     b5c:	fda45783          	lhu	a5,-38(s0)
     b60:	00f707b3          	add	a5,a4,a5
     b64:	01079793          	slli	a5,a5,0x10
     b68:	0107d793          	srli	a5,a5,0x10
     b6c:	fff78793          	addi	a5,a5,-1
     b70:	01079693          	slli	a3,a5,0x10
     b74:	0106d693          	srli	a3,a3,0x10
     b78:	fdc45703          	lhu	a4,-36(s0)
     b7c:	fde45783          	lhu	a5,-34(s0)
     b80:	00070593          	mv	a1,a4
     b84:	00078513          	mv	a0,a5
     b88:	d29ff0ef          	jal	ra,8b0 <lcd_set_windows>
     b8c:	fe042623          	sw	zero,-20(s0)
     b90:	03c0006f          	j	bcc <lcd_draw_rect+0xfc>
     b94:	fe042423          	sw	zero,-24(s0)
     b98:	01c0006f          	j	bb4 <lcd_draw_rect+0xe4>
     b9c:	fd645783          	lhu	a5,-42(s0)
     ba0:	00078513          	mv	a0,a5
     ba4:	e1dff0ef          	jal	ra,9c0 <lcd_write_gram>
     ba8:	fe842783          	lw	a5,-24(s0)
     bac:	00178793          	addi	a5,a5,1
     bb0:	fef42423          	sw	a5,-24(s0)
     bb4:	fd845783          	lhu	a5,-40(s0)
     bb8:	fe842703          	lw	a4,-24(s0)
     bbc:	fef740e3          	blt	a4,a5,b9c <lcd_draw_rect+0xcc>
     bc0:	fec42783          	lw	a5,-20(s0)
     bc4:	00178793          	addi	a5,a5,1
     bc8:	fef42623          	sw	a5,-20(s0)
     bcc:	fda45783          	lhu	a5,-38(s0)
     bd0:	fec42703          	lw	a4,-20(s0)
     bd4:	fcf740e3          	blt	a4,a5,b94 <lcd_draw_rect+0xc4>
     bd8:	00000013          	nop
     bdc:	02c12083          	lw	ra,44(sp)
     be0:	02812403          	lw	s0,40(sp)
     be4:	03010113          	addi	sp,sp,48
     be8:	00008067          	ret

00000bec <lcd_draw_char>:
     bec:	fd010113          	addi	sp,sp,-48
     bf0:	02112623          	sw	ra,44(sp)
     bf4:	02812423          	sw	s0,40(sp)
     bf8:	03010413          	addi	s0,sp,48
     bfc:	00050793          	mv	a5,a0
     c00:	fcf41f23          	sh	a5,-34(s0)
     c04:	00058793          	mv	a5,a1
     c08:	fcf41e23          	sh	a5,-36(s0)
     c0c:	00060793          	mv	a5,a2
     c10:	fcf40da3          	sb	a5,-37(s0)
     c14:	00068793          	mv	a5,a3
     c18:	fcf41c23          	sh	a5,-40(s0)
     c1c:	00070793          	mv	a5,a4
     c20:	fcf40d23          	sb	a5,-38(s0)
     c24:	fdb44783          	lbu	a5,-37(s0)
     c28:	fbf78793          	addi	a5,a5,-65
     c2c:	01500713          	li	a4,21
     c30:	22f76c63          	bltu	a4,a5,e68 <lcd_draw_char+0x27c>
     c34:	00279713          	slli	a4,a5,0x2
     c38:	100007b7          	lui	a5,0x10000
     c3c:	44078793          	addi	a5,a5,1088 # 10000440 <_data+0x440>
     c40:	00f707b3          	add	a5,a4,a5
     c44:	0007a783          	lw	a5,0(a5)
     c48:	00078067          	jr	a5
     c4c:	fc040da3          	sb	zero,-37(s0)
     c50:	0c40006f          	j	d14 <lcd_draw_char+0x128>
     c54:	00100793          	li	a5,1
     c58:	fcf40da3          	sb	a5,-37(s0)
     c5c:	0b80006f          	j	d14 <lcd_draw_char+0x128>
     c60:	00200793          	li	a5,2
     c64:	fcf40da3          	sb	a5,-37(s0)
     c68:	0ac0006f          	j	d14 <lcd_draw_char+0x128>
     c6c:	00300793          	li	a5,3
     c70:	fcf40da3          	sb	a5,-37(s0)
     c74:	0a00006f          	j	d14 <lcd_draw_char+0x128>
     c78:	00400793          	li	a5,4
     c7c:	fcf40da3          	sb	a5,-37(s0)
     c80:	0940006f          	j	d14 <lcd_draw_char+0x128>
     c84:	00500793          	li	a5,5
     c88:	fcf40da3          	sb	a5,-37(s0)
     c8c:	0880006f          	j	d14 <lcd_draw_char+0x128>
     c90:	00600793          	li	a5,6
     c94:	fcf40da3          	sb	a5,-37(s0)
     c98:	07c0006f          	j	d14 <lcd_draw_char+0x128>
     c9c:	00700793          	li	a5,7
     ca0:	fcf40da3          	sb	a5,-37(s0)
     ca4:	0700006f          	j	d14 <lcd_draw_char+0x128>
     ca8:	00800793          	li	a5,8
     cac:	fcf40da3          	sb	a5,-37(s0)
     cb0:	0640006f          	j	d14 <lcd_draw_char+0x128>
     cb4:	00900793          	li	a5,9
     cb8:	fcf40da3          	sb	a5,-37(s0)
     cbc:	0580006f          	j	d14 <lcd_draw_char+0x128>
     cc0:	00a00793          	li	a5,10
     cc4:	fcf40da3          	sb	a5,-37(s0)
     cc8:	04c0006f          	j	d14 <lcd_draw_char+0x128>
     ccc:	00b00793          	li	a5,11
     cd0:	fcf40da3          	sb	a5,-37(s0)
     cd4:	0400006f          	j	d14 <lcd_draw_char+0x128>
     cd8:	00c00793          	li	a5,12
     cdc:	fcf40da3          	sb	a5,-37(s0)
     ce0:	0340006f          	j	d14 <lcd_draw_char+0x128>
     ce4:	00d00793          	li	a5,13
     ce8:	fcf40da3          	sb	a5,-37(s0)
     cec:	0280006f          	j	d14 <lcd_draw_char+0x128>
     cf0:	00e00793          	li	a5,14
     cf4:	fcf40da3          	sb	a5,-37(s0)
     cf8:	01c0006f          	j	d14 <lcd_draw_char+0x128>
     cfc:	00f00793          	li	a5,15
     d00:	fcf40da3          	sb	a5,-37(s0)
     d04:	0100006f          	j	d14 <lcd_draw_char+0x128>
     d08:	01000793          	li	a5,16
     d0c:	fcf40da3          	sb	a5,-37(s0)
     d10:	00000013          	nop
     d14:	fdb44783          	lbu	a5,-37(s0)
     d18:	00279793          	slli	a5,a5,0x2
     d1c:	00378793          	addi	a5,a5,3
     d20:	00479793          	slli	a5,a5,0x4
     d24:	00f78713          	addi	a4,a5,15
     d28:	100007b7          	lui	a5,0x10000
     d2c:	00078793          	mv	a5,a5
     d30:	00f707b3          	add	a5,a4,a5
     d34:	fef42423          	sw	a5,-24(s0)
     d38:	fe0407a3          	sb	zero,-17(s0)
     d3c:	11c0006f          	j	e58 <lcd_draw_char+0x26c>
     d40:	fe040723          	sb	zero,-18(s0)
     d44:	0fc0006f          	j	e40 <lcd_draw_char+0x254>
     d48:	fe0406a3          	sb	zero,-19(s0)
     d4c:	0d00006f          	j	e1c <lcd_draw_char+0x230>
     d50:	fe842783          	lw	a5,-24(s0)
     d54:	0007c783          	lbu	a5,0(a5) # 10000000 <_data>
     d58:	00078693          	mv	a3,a5
     d5c:	fed44783          	lbu	a5,-19(s0)
     d60:	08000713          	li	a4,128
     d64:	40f757b3          	sra	a5,a4,a5
     d68:	00f6f7b3          	and	a5,a3,a5
     d6c:	0a078263          	beqz	a5,e10 <lcd_draw_char+0x224>
     d70:	fef44783          	lbu	a5,-17(s0)
     d74:	01000713          	li	a4,16
     d78:	40f707b3          	sub	a5,a4,a5
     d7c:	01079713          	slli	a4,a5,0x10
     d80:	01075713          	srli	a4,a4,0x10
     d84:	fda44783          	lbu	a5,-38(s0)
     d88:	01079793          	slli	a5,a5,0x10
     d8c:	0107d793          	srli	a5,a5,0x10
     d90:	02f707b3          	mul	a5,a4,a5
     d94:	01079713          	slli	a4,a5,0x10
     d98:	01075713          	srli	a4,a4,0x10
     d9c:	fde45783          	lhu	a5,-34(s0)
     da0:	00f707b3          	add	a5,a4,a5
     da4:	01079513          	slli	a0,a5,0x10
     da8:	01055513          	srli	a0,a0,0x10
     dac:	fee44783          	lbu	a5,-18(s0)
     db0:	00379713          	slli	a4,a5,0x3
     db4:	fed44783          	lbu	a5,-19(s0)
     db8:	00f707b3          	add	a5,a4,a5
     dbc:	01079713          	slli	a4,a5,0x10
     dc0:	01075713          	srli	a4,a4,0x10
     dc4:	fda44783          	lbu	a5,-38(s0)
     dc8:	01079793          	slli	a5,a5,0x10
     dcc:	0107d793          	srli	a5,a5,0x10
     dd0:	02f707b3          	mul	a5,a4,a5
     dd4:	01079713          	slli	a4,a5,0x10
     dd8:	01075713          	srli	a4,a4,0x10
     ddc:	fdc45783          	lhu	a5,-36(s0)
     de0:	00f707b3          	add	a5,a4,a5
     de4:	01079793          	slli	a5,a5,0x10
     de8:	0107d793          	srli	a5,a5,0x10
     dec:	fda44703          	lbu	a4,-38(s0)
     df0:	01071613          	slli	a2,a4,0x10
     df4:	01065613          	srli	a2,a2,0x10
     df8:	fda44703          	lbu	a4,-38(s0)
     dfc:	01071693          	slli	a3,a4,0x10
     e00:	0106d693          	srli	a3,a3,0x10
     e04:	fd845703          	lhu	a4,-40(s0)
     e08:	00078593          	mv	a1,a5
     e0c:	cc5ff0ef          	jal	ra,ad0 <lcd_draw_rect>
     e10:	fed44783          	lbu	a5,-19(s0)
     e14:	00178793          	addi	a5,a5,1
     e18:	fef406a3          	sb	a5,-19(s0)
     e1c:	fed44703          	lbu	a4,-19(s0)
     e20:	00700793          	li	a5,7
     e24:	f2e7f6e3          	bgeu	a5,a4,d50 <lcd_draw_char+0x164>
     e28:	fe842783          	lw	a5,-24(s0)
     e2c:	fff78793          	addi	a5,a5,-1
     e30:	fef42423          	sw	a5,-24(s0)
     e34:	fee44783          	lbu	a5,-18(s0)
     e38:	00178793          	addi	a5,a5,1
     e3c:	fef40723          	sb	a5,-18(s0)
     e40:	fee44703          	lbu	a4,-18(s0)
     e44:	00300793          	li	a5,3
     e48:	f0e7f0e3          	bgeu	a5,a4,d48 <lcd_draw_char+0x15c>
     e4c:	fef44783          	lbu	a5,-17(s0)
     e50:	00178793          	addi	a5,a5,1
     e54:	fef407a3          	sb	a5,-17(s0)
     e58:	fef44703          	lbu	a4,-17(s0)
     e5c:	00f00793          	li	a5,15
     e60:	eee7f0e3          	bgeu	a5,a4,d40 <lcd_draw_char+0x154>
     e64:	0080006f          	j	e6c <lcd_draw_char+0x280>
     e68:	00000013          	nop
     e6c:	02c12083          	lw	ra,44(sp)
     e70:	02812403          	lw	s0,40(sp)
     e74:	03010113          	addi	sp,sp,48
     e78:	00008067          	ret

00000e7c <lcd_draw_string>:
     e7c:	fe010113          	addi	sp,sp,-32
     e80:	00112e23          	sw	ra,28(sp)
     e84:	00812c23          	sw	s0,24(sp)
     e88:	02010413          	addi	s0,sp,32
     e8c:	00050793          	mv	a5,a0
     e90:	fec42423          	sw	a2,-24(s0)
     e94:	fef41723          	sh	a5,-18(s0)
     e98:	00058793          	mv	a5,a1
     e9c:	fef41623          	sh	a5,-20(s0)
     ea0:	00068793          	mv	a5,a3
     ea4:	fef41323          	sh	a5,-26(s0)
     ea8:	00070793          	mv	a5,a4
     eac:	fef402a3          	sb	a5,-27(s0)
     eb0:	0540006f          	j	f04 <lcd_draw_string+0x88>
     eb4:	fe842783          	lw	a5,-24(s0)
     eb8:	0007c603          	lbu	a2,0(a5)
     ebc:	fe544703          	lbu	a4,-27(s0)
     ec0:	fe645683          	lhu	a3,-26(s0)
     ec4:	fec45583          	lhu	a1,-20(s0)
     ec8:	fee45783          	lhu	a5,-18(s0)
     ecc:	00078513          	mv	a0,a5
     ed0:	d1dff0ef          	jal	ra,bec <lcd_draw_char>
     ed4:	fe842783          	lw	a5,-24(s0)
     ed8:	00178793          	addi	a5,a5,1
     edc:	fef42423          	sw	a5,-24(s0)
     ee0:	fe544783          	lbu	a5,-27(s0)
     ee4:	01079793          	slli	a5,a5,0x10
     ee8:	0107d793          	srli	a5,a5,0x10
     eec:	00479793          	slli	a5,a5,0x4
     ef0:	01079713          	slli	a4,a5,0x10
     ef4:	01075713          	srli	a4,a4,0x10
     ef8:	fee45783          	lhu	a5,-18(s0)
     efc:	00f707b3          	add	a5,a4,a5
     f00:	fef41723          	sh	a5,-18(s0)
     f04:	fe842783          	lw	a5,-24(s0)
     f08:	0007c783          	lbu	a5,0(a5)
     f0c:	fa0794e3          	bnez	a5,eb4 <lcd_draw_string+0x38>
     f10:	00000013          	nop
     f14:	01c12083          	lw	ra,28(sp)
     f18:	01812403          	lw	s0,24(sp)
     f1c:	02010113          	addi	sp,sp,32
     f20:	00008067          	ret

00000f24 <led_send_0>:
     f24:	ff010113          	addi	sp,sp,-16
     f28:	00812623          	sw	s0,12(sp)
     f2c:	01010413          	addi	s0,sp,16
     f30:	400007b7          	lui	a5,0x40000
     f34:	00478793          	addi	a5,a5,4 # 40000004 <__freertos_irq_stack_top+0x2fffc004>
     f38:	0007a703          	lw	a4,0(a5)
     f3c:	400007b7          	lui	a5,0x40000
     f40:	00478793          	addi	a5,a5,4 # 40000004 <__freertos_irq_stack_top+0x2fffc004>
     f44:	00476713          	ori	a4,a4,4
     f48:	00e7a023          	sw	a4,0(a5)
     f4c:	00000013          	nop
     f50:	00000013          	nop
     f54:	00000013          	nop
     f58:	00000013          	nop
     f5c:	00000013          	nop
     f60:	400007b7          	lui	a5,0x40000
     f64:	00478793          	addi	a5,a5,4 # 40000004 <__freertos_irq_stack_top+0x2fffc004>
     f68:	0007a703          	lw	a4,0(a5)
     f6c:	400007b7          	lui	a5,0x40000
     f70:	00478793          	addi	a5,a5,4 # 40000004 <__freertos_irq_stack_top+0x2fffc004>
     f74:	ffb77713          	andi	a4,a4,-5
     f78:	00e7a023          	sw	a4,0(a5)
     f7c:	00000013          	nop
     f80:	00000013          	nop
     f84:	00000013          	nop
     f88:	00000013          	nop
     f8c:	00000013          	nop
     f90:	00000013          	nop
     f94:	00000013          	nop
     f98:	00000013          	nop
     f9c:	00000013          	nop
     fa0:	00000013          	nop
     fa4:	00000013          	nop
     fa8:	00000013          	nop
     fac:	00000013          	nop
     fb0:	00000013          	nop
     fb4:	00000013          	nop
     fb8:	00000013          	nop
     fbc:	00000013          	nop
     fc0:	00000013          	nop
     fc4:	00000013          	nop
     fc8:	00000013          	nop
     fcc:	00000013          	nop
     fd0:	00000013          	nop
     fd4:	00000013          	nop
     fd8:	00000013          	nop
     fdc:	00000013          	nop
     fe0:	00000013          	nop
     fe4:	00000013          	nop
     fe8:	00000013          	nop
     fec:	00000013          	nop
     ff0:	00000013          	nop
     ff4:	00000013          	nop
     ff8:	00c12403          	lw	s0,12(sp)
     ffc:	01010113          	addi	sp,sp,16
    1000:	00008067          	ret

00001004 <led_send_1>:
    1004:	ff010113          	addi	sp,sp,-16
    1008:	00812623          	sw	s0,12(sp)
    100c:	01010413          	addi	s0,sp,16
    1010:	400007b7          	lui	a5,0x40000
    1014:	00478793          	addi	a5,a5,4 # 40000004 <__freertos_irq_stack_top+0x2fffc004>
    1018:	0007a703          	lw	a4,0(a5)
    101c:	400007b7          	lui	a5,0x40000
    1020:	00478793          	addi	a5,a5,4 # 40000004 <__freertos_irq_stack_top+0x2fffc004>
    1024:	00476713          	ori	a4,a4,4
    1028:	00e7a023          	sw	a4,0(a5)
    102c:	00000013          	nop
    1030:	00000013          	nop
    1034:	00000013          	nop
    1038:	00000013          	nop
    103c:	00000013          	nop
    1040:	00000013          	nop
    1044:	00000013          	nop
    1048:	00000013          	nop
    104c:	00000013          	nop
    1050:	00000013          	nop
    1054:	00000013          	nop
    1058:	00000013          	nop
    105c:	00000013          	nop
    1060:	00000013          	nop
    1064:	00000013          	nop
    1068:	00000013          	nop
    106c:	00000013          	nop
    1070:	00000013          	nop
    1074:	00000013          	nop
    1078:	00000013          	nop
    107c:	00000013          	nop
    1080:	00000013          	nop
    1084:	00000013          	nop
    1088:	00000013          	nop
    108c:	00000013          	nop
    1090:	00000013          	nop
    1094:	00000013          	nop
    1098:	00000013          	nop
    109c:	00000013          	nop
    10a0:	00000013          	nop
    10a4:	400007b7          	lui	a5,0x40000
    10a8:	00478793          	addi	a5,a5,4 # 40000004 <__freertos_irq_stack_top+0x2fffc004>
    10ac:	0007a703          	lw	a4,0(a5)
    10b0:	400007b7          	lui	a5,0x40000
    10b4:	00478793          	addi	a5,a5,4 # 40000004 <__freertos_irq_stack_top+0x2fffc004>
    10b8:	ffb77713          	andi	a4,a4,-5
    10bc:	00e7a023          	sw	a4,0(a5)
    10c0:	00000013          	nop
    10c4:	00000013          	nop
    10c8:	00000013          	nop
    10cc:	00000013          	nop
    10d0:	00000013          	nop
    10d4:	00000013          	nop
    10d8:	00c12403          	lw	s0,12(sp)
    10dc:	01010113          	addi	sp,sp,16
    10e0:	00008067          	ret

000010e4 <led_send_data>:
    10e4:	fd010113          	addi	sp,sp,-48
    10e8:	02112623          	sw	ra,44(sp)
    10ec:	02812423          	sw	s0,40(sp)
    10f0:	03010413          	addi	s0,sp,48
    10f4:	00050793          	mv	a5,a0
    10f8:	fcf40fa3          	sb	a5,-33(s0)
    10fc:	fe042623          	sw	zero,-20(s0)
    1100:	0300006f          	j	1130 <led_send_data+0x4c>
    1104:	fdf40783          	lb	a5,-33(s0)
    1108:	0007d663          	bgez	a5,1114 <led_send_data+0x30>
    110c:	ef9ff0ef          	jal	ra,1004 <led_send_1>
    1110:	0080006f          	j	1118 <led_send_data+0x34>
    1114:	e11ff0ef          	jal	ra,f24 <led_send_0>
    1118:	fdf44783          	lbu	a5,-33(s0)
    111c:	00179793          	slli	a5,a5,0x1
    1120:	fcf40fa3          	sb	a5,-33(s0)
    1124:	fec42783          	lw	a5,-20(s0)
    1128:	00178793          	addi	a5,a5,1
    112c:	fef42623          	sw	a5,-20(s0)
    1130:	fec42703          	lw	a4,-20(s0)
    1134:	00700793          	li	a5,7
    1138:	fce7d6e3          	bge	a5,a4,1104 <led_send_data+0x20>
    113c:	00000013          	nop
    1140:	02c12083          	lw	ra,44(sp)
    1144:	02812403          	lw	s0,40(sp)
    1148:	03010113          	addi	sp,sp,48
    114c:	00008067          	ret

00001150 <led_send_rgb>:
    1150:	fe010113          	addi	sp,sp,-32
    1154:	00112e23          	sw	ra,28(sp)
    1158:	00812c23          	sw	s0,24(sp)
    115c:	02010413          	addi	s0,sp,32
    1160:	00050793          	mv	a5,a0
    1164:	00058693          	mv	a3,a1
    1168:	00060713          	mv	a4,a2
    116c:	fef407a3          	sb	a5,-17(s0)
    1170:	00068793          	mv	a5,a3
    1174:	fef40723          	sb	a5,-18(s0)
    1178:	00070793          	mv	a5,a4
    117c:	fef406a3          	sb	a5,-19(s0)
    1180:	fee44783          	lbu	a5,-18(s0)
    1184:	00078513          	mv	a0,a5
    1188:	f5dff0ef          	jal	ra,10e4 <led_send_data>
    118c:	fef44783          	lbu	a5,-17(s0)
    1190:	00078513          	mv	a0,a5
    1194:	f51ff0ef          	jal	ra,10e4 <led_send_data>
    1198:	fed44783          	lbu	a5,-19(s0)
    119c:	00078513          	mv	a0,a5
    11a0:	f45ff0ef          	jal	ra,10e4 <led_send_data>
    11a4:	00300513          	li	a0,3
    11a8:	5e5010ef          	jal	ra,2f8c <busy_wait>
    11ac:	00000013          	nop
    11b0:	01c12083          	lw	ra,28(sp)
    11b4:	01812403          	lw	s0,24(sp)
    11b8:	02010113          	addi	sp,sp,32
    11bc:	00008067          	ret

000011c0 <led_init>:
    11c0:	ff010113          	addi	sp,sp,-16
    11c4:	00112623          	sw	ra,12(sp)
    11c8:	00812423          	sw	s0,8(sp)
    11cc:	01010413          	addi	s0,sp,16
    11d0:	00000613          	li	a2,0
    11d4:	00000593          	li	a1,0
    11d8:	08000513          	li	a0,128
    11dc:	f75ff0ef          	jal	ra,1150 <led_send_rgb>
    11e0:	00000613          	li	a2,0
    11e4:	08000593          	li	a1,128
    11e8:	08000513          	li	a0,128
    11ec:	f65ff0ef          	jal	ra,1150 <led_send_rgb>
    11f0:	00000613          	li	a2,0
    11f4:	08000593          	li	a1,128
    11f8:	00000513          	li	a0,0
    11fc:	f55ff0ef          	jal	ra,1150 <led_send_rgb>
    1200:	08000613          	li	a2,128
    1204:	08000593          	li	a1,128
    1208:	00000513          	li	a0,0
    120c:	f45ff0ef          	jal	ra,1150 <led_send_rgb>
    1210:	08000613          	li	a2,128
    1214:	00000593          	li	a1,0
    1218:	00000513          	li	a0,0
    121c:	f35ff0ef          	jal	ra,1150 <led_send_rgb>
    1220:	08000613          	li	a2,128
    1224:	00000593          	li	a1,0
    1228:	08000513          	li	a0,128
    122c:	f25ff0ef          	jal	ra,1150 <led_send_rgb>
    1230:	08000613          	li	a2,128
    1234:	08000593          	li	a1,128
    1238:	08000513          	li	a0,128
    123c:	f15ff0ef          	jal	ra,1150 <led_send_rgb>
    1240:	00000613          	li	a2,0
    1244:	00000593          	li	a1,0
    1248:	08000513          	li	a0,128
    124c:	f05ff0ef          	jal	ra,1150 <led_send_rgb>
    1250:	00000613          	li	a2,0
    1254:	08000593          	li	a1,128
    1258:	08000513          	li	a0,128
    125c:	ef5ff0ef          	jal	ra,1150 <led_send_rgb>
    1260:	00000613          	li	a2,0
    1264:	08000593          	li	a1,128
    1268:	00000513          	li	a0,0
    126c:	ee5ff0ef          	jal	ra,1150 <led_send_rgb>
    1270:	08000613          	li	a2,128
    1274:	08000593          	li	a1,128
    1278:	00000513          	li	a0,0
    127c:	ed5ff0ef          	jal	ra,1150 <led_send_rgb>
    1280:	08000613          	li	a2,128
    1284:	00000593          	li	a1,0
    1288:	00000513          	li	a0,0
    128c:	ec5ff0ef          	jal	ra,1150 <led_send_rgb>
    1290:	08000613          	li	a2,128
    1294:	00000593          	li	a1,0
    1298:	08000513          	li	a0,128
    129c:	eb5ff0ef          	jal	ra,1150 <led_send_rgb>
    12a0:	08000613          	li	a2,128
    12a4:	08000593          	li	a1,128
    12a8:	08000513          	li	a0,128
    12ac:	ea5ff0ef          	jal	ra,1150 <led_send_rgb>
    12b0:	00000013          	nop
    12b4:	00c12083          	lw	ra,12(sp)
    12b8:	00812403          	lw	s0,8(sp)
    12bc:	01010113          	addi	sp,sp,16
    12c0:	00008067          	ret

000012c4 <ui_draw_gameover>:
    12c4:	fe010113          	addi	sp,sp,-32
    12c8:	00112e23          	sw	ra,28(sp)
    12cc:	00812c23          	sw	s0,24(sp)
    12d0:	02010413          	addi	s0,sp,32
    12d4:	00200713          	li	a4,2
    12d8:	00000693          	li	a3,0
    12dc:	100007b7          	lui	a5,0x10000
    12e0:	49878613          	addi	a2,a5,1176 # 10000498 <_data+0x498>
    12e4:	07800593          	li	a1,120
    12e8:	01000513          	li	a0,16
    12ec:	b91ff0ef          	jal	ra,e7c <lcd_draw_string>
    12f0:	00200713          	li	a4,2
    12f4:	000107b7          	lui	a5,0x10
    12f8:	fff78693          	addi	a3,a5,-1 # ffff <_data_lma+0xc7e3>
    12fc:	100007b7          	lui	a5,0x10000
    1300:	49878613          	addi	a2,a5,1176 # 10000498 <_data+0x498>
    1304:	07c00593          	li	a1,124
    1308:	01400513          	li	a0,20
    130c:	b71ff0ef          	jal	ra,e7c <lcd_draw_string>
    1310:	fe042623          	sw	zero,-20(s0)
    1314:	0100006f          	j	1324 <ui_draw_gameover+0x60>
    1318:	fec42783          	lw	a5,-20(s0)
    131c:	00178793          	addi	a5,a5,1
    1320:	fef42623          	sw	a5,-20(s0)
    1324:	fec42703          	lw	a4,-20(s0)
    1328:	1f300793          	li	a5,499
    132c:	fee7d6e3          	bge	a5,a4,1318 <ui_draw_gameover+0x54>
    1330:	00000013          	nop
    1334:	01c12083          	lw	ra,28(sp)
    1338:	01812403          	lw	s0,24(sp)
    133c:	02010113          	addi	sp,sp,32
    1340:	00008067          	ret

00001344 <ui_draw_icon>:
    1344:	fe010113          	addi	sp,sp,-32
    1348:	00112e23          	sw	ra,28(sp)
    134c:	00812c23          	sw	s0,24(sp)
    1350:	02010413          	addi	s0,sp,32
    1354:	00050793          	mv	a5,a0
    1358:	00058713          	mv	a4,a1
    135c:	fef407a3          	sb	a5,-17(s0)
    1360:	00070793          	mv	a5,a4
    1364:	fef40723          	sb	a5,-18(s0)
    1368:	fee44703          	lbu	a4,-18(s0)
    136c:	00300793          	li	a5,3
    1370:	02f777b3          	remu	a5,a4,a5
    1374:	fef40723          	sb	a5,-18(s0)
    1378:	fef44703          	lbu	a4,-17(s0)
    137c:	00300793          	li	a5,3
    1380:	02f777b3          	remu	a5,a4,a5
    1384:	fef407a3          	sb	a5,-17(s0)
    1388:	fef44783          	lbu	a5,-17(s0)
    138c:	08079463          	bnez	a5,1414 <ui_draw_icon+0xd0>
    1390:	fee44783          	lbu	a5,-18(s0)
    1394:	01079713          	slli	a4,a5,0x10
    1398:	01075713          	srli	a4,a4,0x10
    139c:	05a00793          	li	a5,90
    13a0:	02f707b3          	mul	a5,a4,a5
    13a4:	01079793          	slli	a5,a5,0x10
    13a8:	0107d793          	srli	a5,a5,0x10
    13ac:	01e78793          	addi	a5,a5,30
    13b0:	01079793          	slli	a5,a5,0x10
    13b4:	0107d793          	srli	a5,a5,0x10
    13b8:	7e000713          	li	a4,2016
    13bc:	05000693          	li	a3,80
    13c0:	05000613          	li	a2,80
    13c4:	05000593          	li	a1,80
    13c8:	00078513          	mv	a0,a5
    13cc:	f04ff0ef          	jal	ra,ad0 <lcd_draw_rect>
    13d0:	fee44783          	lbu	a5,-18(s0)
    13d4:	01079713          	slli	a4,a5,0x10
    13d8:	01075713          	srli	a4,a4,0x10
    13dc:	05a00793          	li	a5,90
    13e0:	02f707b3          	mul	a5,a4,a5
    13e4:	01079793          	slli	a5,a5,0x10
    13e8:	0107d793          	srli	a5,a5,0x10
    13ec:	03678793          	addi	a5,a5,54
    13f0:	01079513          	slli	a0,a5,0x10
    13f4:	01055513          	srli	a0,a0,0x10
    13f8:	00200713          	li	a4,2
    13fc:	000107b7          	lui	a5,0x10
    1400:	80078693          	addi	a3,a5,-2048 # f800 <_data_lma+0xbfe4>
    1404:	04700613          	li	a2,71
    1408:	06400593          	li	a1,100
    140c:	fe0ff0ef          	jal	ra,bec <lcd_draw_char>
    1410:	1200006f          	j	1530 <ui_draw_icon+0x1ec>
    1414:	fef44703          	lbu	a4,-17(s0)
    1418:	00100793          	li	a5,1
    141c:	08f71463          	bne	a4,a5,14a4 <ui_draw_icon+0x160>
    1420:	fee44783          	lbu	a5,-18(s0)
    1424:	01079713          	slli	a4,a5,0x10
    1428:	01075713          	srli	a4,a4,0x10
    142c:	05a00793          	li	a5,90
    1430:	02f707b3          	mul	a5,a4,a5
    1434:	01079793          	slli	a5,a5,0x10
    1438:	0107d793          	srli	a5,a5,0x10
    143c:	01e78793          	addi	a5,a5,30
    1440:	01079513          	slli	a0,a5,0x10
    1444:	01055513          	srli	a0,a0,0x10
    1448:	000107b7          	lui	a5,0x10
    144c:	81f78713          	addi	a4,a5,-2017 # f81f <_data_lma+0xc003>
    1450:	05000693          	li	a3,80
    1454:	05000613          	li	a2,80
    1458:	05000593          	li	a1,80
    145c:	e74ff0ef          	jal	ra,ad0 <lcd_draw_rect>
    1460:	fee44783          	lbu	a5,-18(s0)
    1464:	01079713          	slli	a4,a5,0x10
    1468:	01075713          	srli	a4,a4,0x10
    146c:	05a00793          	li	a5,90
    1470:	02f707b3          	mul	a5,a4,a5
    1474:	01079793          	slli	a5,a5,0x10
    1478:	0107d793          	srli	a5,a5,0x10
    147c:	03678793          	addi	a5,a5,54
    1480:	01079793          	slli	a5,a5,0x10
    1484:	0107d793          	srli	a5,a5,0x10
    1488:	00200713          	li	a4,2
    148c:	7e000693          	li	a3,2016
    1490:	05400613          	li	a2,84
    1494:	06400593          	li	a1,100
    1498:	00078513          	mv	a0,a5
    149c:	f50ff0ef          	jal	ra,bec <lcd_draw_char>
    14a0:	0900006f          	j	1530 <ui_draw_icon+0x1ec>
    14a4:	fef44703          	lbu	a4,-17(s0)
    14a8:	00200793          	li	a5,2
    14ac:	08f71263          	bne	a4,a5,1530 <ui_draw_icon+0x1ec>
    14b0:	fee44783          	lbu	a5,-18(s0)
    14b4:	01079713          	slli	a4,a5,0x10
    14b8:	01075713          	srli	a4,a4,0x10
    14bc:	05a00793          	li	a5,90
    14c0:	02f707b3          	mul	a5,a4,a5
    14c4:	01079793          	slli	a5,a5,0x10
    14c8:	0107d793          	srli	a5,a5,0x10
    14cc:	01e78793          	addi	a5,a5,30
    14d0:	01079793          	slli	a5,a5,0x10
    14d4:	0107d793          	srli	a5,a5,0x10
    14d8:	01f00713          	li	a4,31
    14dc:	05000693          	li	a3,80
    14e0:	05000613          	li	a2,80
    14e4:	05000593          	li	a1,80
    14e8:	00078513          	mv	a0,a5
    14ec:	de4ff0ef          	jal	ra,ad0 <lcd_draw_rect>
    14f0:	fee44783          	lbu	a5,-18(s0)
    14f4:	01079713          	slli	a4,a5,0x10
    14f8:	01075713          	srli	a4,a4,0x10
    14fc:	05a00793          	li	a5,90
    1500:	02f707b3          	mul	a5,a4,a5
    1504:	01079793          	slli	a5,a5,0x10
    1508:	0107d793          	srli	a5,a5,0x10
    150c:	03678793          	addi	a5,a5,54
    1510:	01079513          	slli	a0,a5,0x10
    1514:	01055513          	srli	a0,a0,0x10
    1518:	00200713          	li	a4,2
    151c:	000107b7          	lui	a5,0x10
    1520:	fe078693          	addi	a3,a5,-32 # ffe0 <_data_lma+0xc7c4>
    1524:	04200613          	li	a2,66
    1528:	06400593          	li	a1,100
    152c:	ec0ff0ef          	jal	ra,bec <lcd_draw_char>
    1530:	00000013          	nop
    1534:	01c12083          	lw	ra,28(sp)
    1538:	01812403          	lw	s0,24(sp)
    153c:	02010113          	addi	sp,sp,32
    1540:	00008067          	ret

00001544 <ui_draw_item>:
    1544:	fe010113          	addi	sp,sp,-32
    1548:	00112e23          	sw	ra,28(sp)
    154c:	00812c23          	sw	s0,24(sp)
    1550:	02010413          	addi	s0,sp,32
    1554:	00050793          	mv	a5,a0
    1558:	00058693          	mv	a3,a1
    155c:	00060713          	mv	a4,a2
    1560:	fef41723          	sh	a5,-18(s0)
    1564:	00068793          	mv	a5,a3
    1568:	fef41623          	sh	a5,-20(s0)
    156c:	00070793          	mv	a5,a4
    1570:	fef405a3          	sb	a5,-21(s0)
    1574:	feb44783          	lbu	a5,-21(s0)
    1578:	04079a63          	bnez	a5,15cc <ui_draw_item+0x88>
    157c:	fec45583          	lhu	a1,-20(s0)
    1580:	fee45503          	lhu	a0,-18(s0)
    1584:	000107b7          	lui	a5,0x10
    1588:	80078713          	addi	a4,a5,-2048 # f800 <_data_lma+0xbfe4>
    158c:	01400693          	li	a3,20
    1590:	01400613          	li	a2,20
    1594:	d3cff0ef          	jal	ra,ad0 <lcd_draw_rect>
    1598:	fee45783          	lhu	a5,-18(s0)
    159c:	00d78793          	addi	a5,a5,13
    15a0:	01079513          	slli	a0,a5,0x10
    15a4:	01055513          	srli	a0,a0,0x10
    15a8:	fec45783          	lhu	a5,-20(s0)
    15ac:	00d78793          	addi	a5,a5,13
    15b0:	01079593          	slli	a1,a5,0x10
    15b4:	0105d593          	srli	a1,a1,0x10
    15b8:	000107b7          	lui	a5,0x10
    15bc:	fff78713          	addi	a4,a5,-1 # ffff <_data_lma+0xc7e3>
    15c0:	00500693          	li	a3,5
    15c4:	00500613          	li	a2,5
    15c8:	d08ff0ef          	jal	ra,ad0 <lcd_draw_rect>
    15cc:	feb44703          	lbu	a4,-21(s0)
    15d0:	00100793          	li	a5,1
    15d4:	08f71463          	bne	a4,a5,165c <ui_draw_item+0x118>
    15d8:	fec45583          	lhu	a1,-20(s0)
    15dc:	fee45503          	lhu	a0,-18(s0)
    15e0:	000107b7          	lui	a5,0x10
    15e4:	80078713          	addi	a4,a5,-2048 # f800 <_data_lma+0xbfe4>
    15e8:	01400693          	li	a3,20
    15ec:	01400613          	li	a2,20
    15f0:	ce0ff0ef          	jal	ra,ad0 <lcd_draw_rect>
    15f4:	fee45783          	lhu	a5,-18(s0)
    15f8:	00378793          	addi	a5,a5,3
    15fc:	01079513          	slli	a0,a5,0x10
    1600:	01055513          	srli	a0,a0,0x10
    1604:	fec45783          	lhu	a5,-20(s0)
    1608:	00578793          	addi	a5,a5,5
    160c:	01079593          	slli	a1,a5,0x10
    1610:	0105d593          	srli	a1,a1,0x10
    1614:	000107b7          	lui	a5,0x10
    1618:	c0078713          	addi	a4,a5,-1024 # fc00 <_data_lma+0xc3e4>
    161c:	00300693          	li	a3,3
    1620:	00300613          	li	a2,3
    1624:	cacff0ef          	jal	ra,ad0 <lcd_draw_rect>
    1628:	fee45783          	lhu	a5,-18(s0)
    162c:	00d78793          	addi	a5,a5,13
    1630:	01079513          	slli	a0,a5,0x10
    1634:	01055513          	srli	a0,a0,0x10
    1638:	fec45783          	lhu	a5,-20(s0)
    163c:	00b78793          	addi	a5,a5,11
    1640:	01079593          	slli	a1,a5,0x10
    1644:	0105d593          	srli	a1,a1,0x10
    1648:	000107b7          	lui	a5,0x10
    164c:	c0078713          	addi	a4,a5,-1024 # fc00 <_data_lma+0xc3e4>
    1650:	00300693          	li	a3,3
    1654:	00200613          	li	a2,2
    1658:	c78ff0ef          	jal	ra,ad0 <lcd_draw_rect>
    165c:	feb44703          	lbu	a4,-21(s0)
    1660:	00200793          	li	a5,2
    1664:	02f71063          	bne	a4,a5,1684 <ui_draw_item+0x140>
    1668:	fec45583          	lhu	a1,-20(s0)
    166c:	fee45503          	lhu	a0,-18(s0)
    1670:	000087b7          	lui	a5,0x8
    1674:	7e078713          	addi	a4,a5,2016 # 87e0 <_data_lma+0x4fc4>
    1678:	01400693          	li	a3,20
    167c:	01400613          	li	a2,20
    1680:	c50ff0ef          	jal	ra,ad0 <lcd_draw_rect>
    1684:	00000013          	nop
    1688:	01c12083          	lw	ra,28(sp)
    168c:	01812403          	lw	s0,24(sp)
    1690:	02010113          	addi	sp,sp,32
    1694:	00008067          	ret

00001698 <ui_draw_scene>:
    1698:	fe010113          	addi	sp,sp,-32
    169c:	00112e23          	sw	ra,28(sp)
    16a0:	00812c23          	sw	s0,24(sp)
    16a4:	02010413          	addi	s0,sp,32
    16a8:	00050793          	mv	a5,a0
    16ac:	fef407a3          	sb	a5,-17(s0)
    16b0:	fef44783          	lbu	a5,-17(s0)
    16b4:	0a079863          	bnez	a5,1764 <ui_draw_scene+0xcc>
    16b8:	b09ff0ef          	jal	ra,11c0 <led_init>
    16bc:	000107b7          	lui	a5,0x10
    16c0:	80078513          	addi	a0,a5,-2048 # f800 <_data_lma+0xbfe4>
    16c4:	b80ff0ef          	jal	ra,a44 <lcd_clear>
    16c8:	00200713          	li	a4,2
    16cc:	00000693          	li	a3,0
    16d0:	100007b7          	lui	a5,0x10000
    16d4:	4a478613          	addi	a2,a5,1188 # 100004a4 <_data+0x4a4>
    16d8:	0a600593          	li	a1,166
    16dc:	06400513          	li	a0,100
    16e0:	f9cff0ef          	jal	ra,e7c <lcd_draw_string>
    16e4:	00200713          	li	a4,2
    16e8:	000107b7          	lui	a5,0x10
    16ec:	fff78693          	addi	a3,a5,-1 # ffff <_data_lma+0xc7e3>
    16f0:	100007b7          	lui	a5,0x10000
    16f4:	4a478613          	addi	a2,a5,1188 # 100004a4 <_data+0x4a4>
    16f8:	0aa00593          	li	a1,170
    16fc:	06000513          	li	a0,96
    1700:	f7cff0ef          	jal	ra,e7c <lcd_draw_string>
    1704:	00000713          	li	a4,0
    1708:	05000693          	li	a3,80
    170c:	05000613          	li	a2,80
    1710:	04c00593          	li	a1,76
    1714:	07c00513          	li	a0,124
    1718:	bb8ff0ef          	jal	ra,ad0 <lcd_draw_rect>
    171c:	00100713          	li	a4,1
    1720:	000107b7          	lui	a5,0x10
    1724:	fff78693          	addi	a3,a5,-1 # ffff <_data_lma+0xc7e3>
    1728:	100007b7          	lui	a5,0x10000
    172c:	4ac78613          	addi	a2,a5,1196 # 100004ac <_data+0x4ac>
    1730:	01400593          	li	a1,20
    1734:	06400513          	li	a0,100
    1738:	f44ff0ef          	jal	ra,e7c <lcd_draw_string>
    173c:	00100593          	li	a1,1
    1740:	00000513          	li	a0,0
    1744:	c01ff0ef          	jal	ra,1344 <ui_draw_icon>
    1748:	00200593          	li	a1,2
    174c:	00100513          	li	a0,1
    1750:	bf5ff0ef          	jal	ra,1344 <ui_draw_icon>
    1754:	00300593          	li	a1,3
    1758:	00200513          	li	a0,2
    175c:	be9ff0ef          	jal	ra,1344 <ui_draw_icon>
    1760:	0500006f          	j	17b0 <ui_draw_scene+0x118>
    1764:	fef44703          	lbu	a4,-17(s0)
    1768:	00100793          	li	a5,1
    176c:	00f71a63          	bne	a4,a5,1780 <ui_draw_scene+0xe8>
    1770:	000087b7          	lui	a5,0x8
    1774:	7e078513          	addi	a0,a5,2016 # 87e0 <_data_lma+0x4fc4>
    1778:	accff0ef          	jal	ra,a44 <lcd_clear>
    177c:	0340006f          	j	17b0 <ui_draw_scene+0x118>
    1780:	fef44703          	lbu	a4,-17(s0)
    1784:	00200793          	li	a5,2
    1788:	00f71a63          	bne	a4,a5,179c <ui_draw_scene+0x104>
    178c:	000107b7          	lui	a5,0x10
    1790:	fe078513          	addi	a0,a5,-32 # ffe0 <_data_lma+0xc7c4>
    1794:	ab0ff0ef          	jal	ra,a44 <lcd_clear>
    1798:	0180006f          	j	17b0 <ui_draw_scene+0x118>
    179c:	fef44703          	lbu	a4,-17(s0)
    17a0:	00300793          	li	a5,3
    17a4:	00f71663          	bne	a4,a5,17b0 <ui_draw_scene+0x118>
    17a8:	01f00513          	li	a0,31
    17ac:	a98ff0ef          	jal	ra,a44 <lcd_clear>
    17b0:	00000013          	nop
    17b4:	01c12083          	lw	ra,28(sp)
    17b8:	01812403          	lw	s0,24(sp)
    17bc:	02010113          	addi	sp,sp,32
    17c0:	00008067          	ret

000017c4 <main>:
    17c4:	dc010113          	addi	sp,sp,-576
    17c8:	22112e23          	sw	ra,572(sp)
    17cc:	22812c23          	sw	s0,568(sp)
    17d0:	24010413          	addi	s0,sp,576
    17d4:	6bd010ef          	jal	ra,3690 <uart_init>
    17d8:	995fe0ef          	jal	ra,16c <gpio_init>
    17dc:	a3cff0ef          	jal	ra,a18 <lcd_init>
    17e0:	9e1ff0ef          	jal	ra,11c0 <led_init>
    17e4:	00000513          	li	a0,0
    17e8:	eb1ff0ef          	jal	ra,1698 <ui_draw_scene>
    17ec:	fe0407a3          	sb	zero,-17(s0)
    17f0:	fe040723          	sb	zero,-18(s0)
    17f4:	fe0406a3          	sb	zero,-19(s0)
    17f8:	fe040623          	sb	zero,-20(s0)
    17fc:	e9c40793          	addi	a5,s0,-356
    1800:	0c000713          	li	a4,192
    1804:	00070613          	mv	a2,a4
    1808:	00000593          	li	a1,0
    180c:	00078513          	mv	a0,a5
    1810:	731010ef          	jal	ra,3740 <memset>
    1814:	00700793          	li	a5,7
    1818:	fef405a3          	sb	a5,-21(s0)
    181c:	00500793          	li	a5,5
    1820:	fef40523          	sb	a5,-22(s0)
    1824:	feb44783          	lbu	a5,-21(s0)
    1828:	00178793          	addi	a5,a5,1
    182c:	fef404a3          	sb	a5,-23(s0)
    1830:	fea44783          	lbu	a5,-22(s0)
    1834:	00278793          	addi	a5,a5,2
    1838:	fef40423          	sb	a5,-24(s0)
    183c:	00300793          	li	a5,3
    1840:	fef403a3          	sb	a5,-25(s0)
    1844:	00400793          	li	a5,4
    1848:	fef40323          	sb	a5,-26(s0)
    184c:	fea40783          	lb	a5,-22(s0)
    1850:	feb40703          	lb	a4,-21(s0)
    1854:	ffe70713          	addi	a4,a4,-2
    1858:	00479793          	slli	a5,a5,0x4
    185c:	ff040693          	addi	a3,s0,-16
    1860:	00f687b3          	add	a5,a3,a5
    1864:	00e787b3          	add	a5,a5,a4
    1868:	00300713          	li	a4,3
    186c:	eae78623          	sb	a4,-340(a5)
    1870:	fea40783          	lb	a5,-22(s0)
    1874:	feb40703          	lb	a4,-21(s0)
    1878:	fff70713          	addi	a4,a4,-1
    187c:	00479793          	slli	a5,a5,0x4
    1880:	ff040693          	addi	a3,s0,-16
    1884:	00f687b3          	add	a5,a3,a5
    1888:	00e787b3          	add	a5,a5,a4
    188c:	00200713          	li	a4,2
    1890:	eae78623          	sb	a4,-340(a5)
    1894:	fea40783          	lb	a5,-22(s0)
    1898:	feb40703          	lb	a4,-21(s0)
    189c:	00479793          	slli	a5,a5,0x4
    18a0:	ff040693          	addi	a3,s0,-16
    18a4:	00f687b3          	add	a5,a3,a5
    18a8:	00e787b3          	add	a5,a5,a4
    18ac:	00100713          	li	a4,1
    18b0:	eae78623          	sb	a4,-340(a5)
    18b4:	fe844783          	lbu	a5,-24(s0)
    18b8:	fe944703          	lbu	a4,-23(s0)
    18bc:	00479793          	slli	a5,a5,0x4
    18c0:	ff040693          	addi	a3,s0,-16
    18c4:	00f687b3          	add	a5,a3,a5
    18c8:	00e787b3          	add	a5,a5,a4
    18cc:	fff00713          	li	a4,-1
    18d0:	eae78623          	sb	a4,-340(a5)
    18d4:	fe0402a3          	sb	zero,-27(s0)
    18d8:	ddc40793          	addi	a5,s0,-548
    18dc:	0c000713          	li	a4,192
    18e0:	00070613          	mv	a2,a4
    18e4:	00000593          	li	a1,0
    18e8:	00078513          	mv	a0,a5
    18ec:	655010ef          	jal	ra,3740 <memset>
    18f0:	100007b7          	lui	a5,0x10000
    18f4:	5207a783          	lw	a5,1312(a5) # 10000520 <_data+0x520>
    18f8:	dcf42c23          	sw	a5,-552(s0)
    18fc:	8041a783          	lw	a5,-2044(gp) # 10000524 <_data+0x524>
    1900:	dcf42a23          	sw	a5,-556(s0)
    1904:	00700793          	li	a5,7
    1908:	fef40223          	sb	a5,-28(s0)
    190c:	fe0401a3          	sb	zero,-29(s0)
    1910:	000057b7          	lui	a5,0x5
    1914:	e2078513          	addi	a0,a5,-480 # 4e20 <_data_lma+0x1604>
    1918:	674010ef          	jal	ra,2f8c <busy_wait>
    191c:	fed44783          	lbu	a5,-19(s0)
    1920:	00178793          	addi	a5,a5,1
    1924:	fef406a3          	sb	a5,-19(s0)
    1928:	501010ef          	jal	ra,3628 <uart_getc_nowait>
    192c:	00050793          	mv	a5,a0
    1930:	fef40123          	sb	a5,-30(s0)
    1934:	fe344783          	lbu	a5,-29(s0)
    1938:	00078a63          	beqz	a5,194c <main+0x188>
    193c:	fe344783          	lbu	a5,-29(s0)
    1940:	fff78793          	addi	a5,a5,-1
    1944:	fef401a3          	sb	a5,-29(s0)
    1948:	0b00006f          	j	19f8 <main+0x234>
    194c:	fe244783          	lbu	a5,-30(s0)
    1950:	0a079463          	bnez	a5,19f8 <main+0x234>
    1954:	400007b7          	lui	a5,0x40000
    1958:	00478793          	addi	a5,a5,4 # 40000004 <__freertos_irq_stack_top+0x2fffc004>
    195c:	0007a783          	lw	a5,0(a5)
    1960:	0107f793          	andi	a5,a5,16
    1964:	00079863          	bnez	a5,1974 <main+0x1b0>
    1968:	04100793          	li	a5,65
    196c:	fef40123          	sb	a5,-30(s0)
    1970:	0800006f          	j	19f0 <main+0x22c>
    1974:	400007b7          	lui	a5,0x40000
    1978:	00478793          	addi	a5,a5,4 # 40000004 <__freertos_irq_stack_top+0x2fffc004>
    197c:	0007a783          	lw	a5,0(a5)
    1980:	0207f793          	andi	a5,a5,32
    1984:	00079863          	bnez	a5,1994 <main+0x1d0>
    1988:	05700793          	li	a5,87
    198c:	fef40123          	sb	a5,-30(s0)
    1990:	0600006f          	j	19f0 <main+0x22c>
    1994:	400007b7          	lui	a5,0x40000
    1998:	00478793          	addi	a5,a5,4 # 40000004 <__freertos_irq_stack_top+0x2fffc004>
    199c:	0007a783          	lw	a5,0(a5)
    19a0:	0407f793          	andi	a5,a5,64
    19a4:	00079863          	bnez	a5,19b4 <main+0x1f0>
    19a8:	05300793          	li	a5,83
    19ac:	fef40123          	sb	a5,-30(s0)
    19b0:	0400006f          	j	19f0 <main+0x22c>
    19b4:	400007b7          	lui	a5,0x40000
    19b8:	00478793          	addi	a5,a5,4 # 40000004 <__freertos_irq_stack_top+0x2fffc004>
    19bc:	0007a783          	lw	a5,0(a5)
    19c0:	0807f793          	andi	a5,a5,128
    19c4:	00079863          	bnez	a5,19d4 <main+0x210>
    19c8:	04400793          	li	a5,68
    19cc:	fef40123          	sb	a5,-30(s0)
    19d0:	0200006f          	j	19f0 <main+0x22c>
    19d4:	400007b7          	lui	a5,0x40000
    19d8:	00478793          	addi	a5,a5,4 # 40000004 <__freertos_irq_stack_top+0x2fffc004>
    19dc:	0007a783          	lw	a5,0(a5)
    19e0:	0087f793          	andi	a5,a5,8
    19e4:	00079663          	bnez	a5,19f0 <main+0x22c>
    19e8:	05100793          	li	a5,81
    19ec:	fef40123          	sb	a5,-30(s0)
    19f0:	00a00793          	li	a5,10
    19f4:	fef401a3          	sb	a5,-29(s0)
    19f8:	fe244783          	lbu	a5,-30(s0)
    19fc:	6c078c63          	beqz	a5,20d4 <__stack_size+0xd4>
    1a00:	fe244783          	lbu	a5,-30(s0)
    1a04:	00078593          	mv	a1,a5
    1a08:	100007b7          	lui	a5,0x10000
    1a0c:	4c078513          	addi	a0,a5,1216 # 100004c0 <_data+0x4c0>
    1a10:	36d010ef          	jal	ra,357c <xprintf>
    1a14:	fef44783          	lbu	a5,-17(s0)
    1a18:	2a079a63          	bnez	a5,1ccc <main+0x508>
    1a1c:	fe244703          	lbu	a4,-30(s0)
    1a20:	04100793          	li	a5,65
    1a24:	00f70863          	beq	a4,a5,1a34 <main+0x270>
    1a28:	fe244703          	lbu	a4,-30(s0)
    1a2c:	04400793          	li	a5,68
    1a30:	0af71a63          	bne	a4,a5,1ae4 <main+0x320>
    1a34:	fe244703          	lbu	a4,-30(s0)
    1a38:	04100793          	li	a5,65
    1a3c:	02f71863          	bne	a4,a5,1a6c <main+0x2a8>
    1a40:	fee40703          	lb	a4,-18(s0)
    1a44:	00200793          	li	a5,2
    1a48:	00f71663          	bne	a4,a5,1a54 <main+0x290>
    1a4c:	fe040723          	sb	zero,-18(s0)
    1a50:	0500006f          	j	1aa0 <main+0x2dc>
    1a54:	fee40783          	lb	a5,-18(s0)
    1a58:	0ff7f793          	andi	a5,a5,255
    1a5c:	00178793          	addi	a5,a5,1
    1a60:	0ff7f793          	andi	a5,a5,255
    1a64:	fef40723          	sb	a5,-18(s0)
    1a68:	0380006f          	j	1aa0 <main+0x2dc>
    1a6c:	fe244703          	lbu	a4,-30(s0)
    1a70:	04400793          	li	a5,68
    1a74:	02f71663          	bne	a4,a5,1aa0 <main+0x2dc>
    1a78:	fee40783          	lb	a5,-18(s0)
    1a7c:	00079863          	bnez	a5,1a8c <main+0x2c8>
    1a80:	00200793          	li	a5,2
    1a84:	fef40723          	sb	a5,-18(s0)
    1a88:	0180006f          	j	1aa0 <main+0x2dc>
    1a8c:	fee40783          	lb	a5,-18(s0)
    1a90:	0ff7f793          	andi	a5,a5,255
    1a94:	fff78793          	addi	a5,a5,-1
    1a98:	0ff7f793          	andi	a5,a5,255
    1a9c:	fef40723          	sb	a5,-18(s0)
    1aa0:	fee44783          	lbu	a5,-18(s0)
    1aa4:	00100593          	li	a1,1
    1aa8:	00078513          	mv	a0,a5
    1aac:	899ff0ef          	jal	ra,1344 <ui_draw_icon>
    1ab0:	fee44783          	lbu	a5,-18(s0)
    1ab4:	00178793          	addi	a5,a5,1
    1ab8:	0ff7f793          	andi	a5,a5,255
    1abc:	00200593          	li	a1,2
    1ac0:	00078513          	mv	a0,a5
    1ac4:	881ff0ef          	jal	ra,1344 <ui_draw_icon>
    1ac8:	fee44783          	lbu	a5,-18(s0)
    1acc:	00278793          	addi	a5,a5,2
    1ad0:	0ff7f793          	andi	a5,a5,255
    1ad4:	00300593          	li	a1,3
    1ad8:	00078513          	mv	a0,a5
    1adc:	869ff0ef          	jal	ra,1344 <ui_draw_icon>
    1ae0:	1ec0006f          	j	1ccc <main+0x508>
    1ae4:	fe244703          	lbu	a4,-30(s0)
    1ae8:	05700793          	li	a5,87
    1aec:	1ef71063          	bne	a4,a5,1ccc <main+0x508>
    1af0:	fee44783          	lbu	a5,-18(s0)
    1af4:	00178793          	addi	a5,a5,1
    1af8:	fef407a3          	sb	a5,-17(s0)
    1afc:	fee40783          	lb	a5,-18(s0)
    1b00:	10079263          	bnez	a5,1c04 <main+0x440>
    1b04:	fc042e23          	sw	zero,-36(s0)
    1b08:	0200006f          	j	1b28 <main+0x364>
    1b0c:	00000613          	li	a2,0
    1b10:	00000593          	li	a1,0
    1b14:	00000513          	li	a0,0
    1b18:	e38ff0ef          	jal	ra,1150 <led_send_rgb>
    1b1c:	fdc42783          	lw	a5,-36(s0)
    1b20:	00178793          	addi	a5,a5,1
    1b24:	fcf42e23          	sw	a5,-36(s0)
    1b28:	fdc42703          	lw	a4,-36(s0)
    1b2c:	01300793          	li	a5,19
    1b30:	fce7dee3          	bge	a5,a4,1b0c <main+0x348>
    1b34:	fe040623          	sb	zero,-20(s0)
    1b38:	00700793          	li	a5,7
    1b3c:	fef405a3          	sb	a5,-21(s0)
    1b40:	00500793          	li	a5,5
    1b44:	fef40523          	sb	a5,-22(s0)
    1b48:	feb44783          	lbu	a5,-21(s0)
    1b4c:	00178793          	addi	a5,a5,1
    1b50:	fef404a3          	sb	a5,-23(s0)
    1b54:	fea44783          	lbu	a5,-22(s0)
    1b58:	00278793          	addi	a5,a5,2
    1b5c:	fef40423          	sb	a5,-24(s0)
    1b60:	00300793          	li	a5,3
    1b64:	fef403a3          	sb	a5,-25(s0)
    1b68:	00400793          	li	a5,4
    1b6c:	fef40323          	sb	a5,-26(s0)
    1b70:	fea40783          	lb	a5,-22(s0)
    1b74:	feb40703          	lb	a4,-21(s0)
    1b78:	ffe70713          	addi	a4,a4,-2
    1b7c:	00479793          	slli	a5,a5,0x4
    1b80:	ff040693          	addi	a3,s0,-16
    1b84:	00f687b3          	add	a5,a3,a5
    1b88:	00e787b3          	add	a5,a5,a4
    1b8c:	00300713          	li	a4,3
    1b90:	eae78623          	sb	a4,-340(a5)
    1b94:	fea40783          	lb	a5,-22(s0)
    1b98:	feb40703          	lb	a4,-21(s0)
    1b9c:	fff70713          	addi	a4,a4,-1
    1ba0:	00479793          	slli	a5,a5,0x4
    1ba4:	ff040693          	addi	a3,s0,-16
    1ba8:	00f687b3          	add	a5,a3,a5
    1bac:	00e787b3          	add	a5,a5,a4
    1bb0:	00200713          	li	a4,2
    1bb4:	eae78623          	sb	a4,-340(a5)
    1bb8:	fea40783          	lb	a5,-22(s0)
    1bbc:	feb40703          	lb	a4,-21(s0)
    1bc0:	00479793          	slli	a5,a5,0x4
    1bc4:	ff040693          	addi	a3,s0,-16
    1bc8:	00f687b3          	add	a5,a3,a5
    1bcc:	00e787b3          	add	a5,a5,a4
    1bd0:	00100713          	li	a4,1
    1bd4:	eae78623          	sb	a4,-340(a5)
    1bd8:	fe844783          	lbu	a5,-24(s0)
    1bdc:	fe944703          	lbu	a4,-23(s0)
    1be0:	00479793          	slli	a5,a5,0x4
    1be4:	ff040693          	addi	a3,s0,-16
    1be8:	00f687b3          	add	a5,a3,a5
    1bec:	00e787b3          	add	a5,a5,a4
    1bf0:	fff00713          	li	a4,-1
    1bf4:	eae78623          	sb	a4,-340(a5)
    1bf8:	00100513          	li	a0,1
    1bfc:	a9dff0ef          	jal	ra,1698 <ui_draw_scene>
    1c00:	2a40106f          	j	2ea4 <__stack_size+0xea4>
    1c04:	fee40703          	lb	a4,-18(s0)
    1c08:	00100793          	li	a5,1
    1c0c:	0af71463          	bne	a4,a5,1cb4 <main+0x4f0>
    1c10:	fc042c23          	sw	zero,-40(s0)
    1c14:	0200006f          	j	1c34 <main+0x470>
    1c18:	00000613          	li	a2,0
    1c1c:	00000593          	li	a1,0
    1c20:	00000513          	li	a0,0
    1c24:	d2cff0ef          	jal	ra,1150 <led_send_rgb>
    1c28:	fd842783          	lw	a5,-40(s0)
    1c2c:	00178793          	addi	a5,a5,1
    1c30:	fcf42c23          	sw	a5,-40(s0)
    1c34:	fd842703          	lw	a4,-40(s0)
    1c38:	00d00793          	li	a5,13
    1c3c:	fce7dee3          	bge	a5,a4,1c18 <main+0x454>
    1c40:	fc042a23          	sw	zero,-44(s0)
    1c44:	04c0006f          	j	1c90 <main+0x4cc>
    1c48:	fc042823          	sw	zero,-48(s0)
    1c4c:	02c0006f          	j	1c78 <main+0x4b4>
    1c50:	fd442783          	lw	a5,-44(s0)
    1c54:	00479793          	slli	a5,a5,0x4
    1c58:	ff040713          	addi	a4,s0,-16
    1c5c:	00f70733          	add	a4,a4,a5
    1c60:	fd042783          	lw	a5,-48(s0)
    1c64:	00f707b3          	add	a5,a4,a5
    1c68:	de078623          	sb	zero,-532(a5)
    1c6c:	fd042783          	lw	a5,-48(s0)
    1c70:	00178793          	addi	a5,a5,1
    1c74:	fcf42823          	sw	a5,-48(s0)
    1c78:	fd042703          	lw	a4,-48(s0)
    1c7c:	00f00793          	li	a5,15
    1c80:	fce7d8e3          	bge	a5,a4,1c50 <main+0x48c>
    1c84:	fd442783          	lw	a5,-44(s0)
    1c88:	00178793          	addi	a5,a5,1
    1c8c:	fcf42a23          	sw	a5,-44(s0)
    1c90:	fd442703          	lw	a4,-44(s0)
    1c94:	00b00793          	li	a5,11
    1c98:	fae7d8e3          	bge	a5,a4,1c48 <main+0x484>
    1c9c:	fe0402a3          	sb	zero,-27(s0)
    1ca0:	00700793          	li	a5,7
    1ca4:	f4f40fa3          	sb	a5,-161(s0)
    1ca8:	00200513          	li	a0,2
    1cac:	9edff0ef          	jal	ra,1698 <ui_draw_scene>
    1cb0:	1f40106f          	j	2ea4 <__stack_size+0xea4>
    1cb4:	fee40703          	lb	a4,-18(s0)
    1cb8:	00200793          	li	a5,2
    1cbc:	00f71863          	bne	a4,a5,1ccc <main+0x508>
    1cc0:	00300513          	li	a0,3
    1cc4:	9d5ff0ef          	jal	ra,1698 <ui_draw_scene>
    1cc8:	1dc0106f          	j	2ea4 <__stack_size+0xea4>
    1ccc:	fef44703          	lbu	a4,-17(s0)
    1cd0:	00100793          	li	a5,1
    1cd4:	0af71863          	bne	a4,a5,1d84 <main+0x5c0>
    1cd8:	fe244703          	lbu	a4,-30(s0)
    1cdc:	04100793          	li	a5,65
    1ce0:	00f71e63          	bne	a4,a5,1cfc <main+0x538>
    1ce4:	fe644703          	lbu	a4,-26(s0)
    1ce8:	00400793          	li	a5,4
    1cec:	08f70c63          	beq	a4,a5,1d84 <main+0x5c0>
    1cf0:	00100793          	li	a5,1
    1cf4:	fef40323          	sb	a5,-26(s0)
    1cf8:	08c0006f          	j	1d84 <main+0x5c0>
    1cfc:	fe244703          	lbu	a4,-30(s0)
    1d00:	05700793          	li	a5,87
    1d04:	00f71e63          	bne	a4,a5,1d20 <main+0x55c>
    1d08:	fe644703          	lbu	a4,-26(s0)
    1d0c:	00300793          	li	a5,3
    1d10:	06f70a63          	beq	a4,a5,1d84 <main+0x5c0>
    1d14:	00200793          	li	a5,2
    1d18:	fef40323          	sb	a5,-26(s0)
    1d1c:	0680006f          	j	1d84 <main+0x5c0>
    1d20:	fe244703          	lbu	a4,-30(s0)
    1d24:	05300793          	li	a5,83
    1d28:	00f71e63          	bne	a4,a5,1d44 <main+0x580>
    1d2c:	fe644703          	lbu	a4,-26(s0)
    1d30:	00200793          	li	a5,2
    1d34:	04f70863          	beq	a4,a5,1d84 <main+0x5c0>
    1d38:	00300793          	li	a5,3
    1d3c:	fef40323          	sb	a5,-26(s0)
    1d40:	0440006f          	j	1d84 <main+0x5c0>
    1d44:	fe244703          	lbu	a4,-30(s0)
    1d48:	04400793          	li	a5,68
    1d4c:	00f71e63          	bne	a4,a5,1d68 <main+0x5a4>
    1d50:	fe644703          	lbu	a4,-26(s0)
    1d54:	00100793          	li	a5,1
    1d58:	02f70663          	beq	a4,a5,1d84 <main+0x5c0>
    1d5c:	00400793          	li	a5,4
    1d60:	fef40323          	sb	a5,-26(s0)
    1d64:	0200006f          	j	1d84 <main+0x5c0>
    1d68:	fe244703          	lbu	a4,-30(s0)
    1d6c:	05100793          	li	a5,81
    1d70:	00f71a63          	bne	a4,a5,1d84 <main+0x5c0>
    1d74:	fe0407a3          	sb	zero,-17(s0)
    1d78:	00000513          	li	a0,0
    1d7c:	91dff0ef          	jal	ra,1698 <ui_draw_scene>
    1d80:	1240106f          	j	2ea4 <__stack_size+0xea4>
    1d84:	fef44703          	lbu	a4,-17(s0)
    1d88:	00200793          	li	a5,2
    1d8c:	2ef71863          	bne	a4,a5,207c <__stack_size+0x7c>
    1d90:	fe244703          	lbu	a4,-30(s0)
    1d94:	04100793          	li	a5,65
    1d98:	04f71e63          	bne	a4,a5,1df4 <main+0x630>
    1d9c:	fe444783          	lbu	a5,-28(s0)
    1da0:	0047f793          	andi	a5,a5,4
    1da4:	04078863          	beqz	a5,1df4 <main+0x630>
    1da8:	fc042623          	sw	zero,-52(s0)
    1dac:	0380006f          	j	1de4 <main+0x620>
    1db0:	fcc42783          	lw	a5,-52(s0)
    1db4:	ff040713          	addi	a4,s0,-16
    1db8:	00f707b3          	add	a5,a4,a5
    1dbc:	de87c783          	lbu	a5,-536(a5)
    1dc0:	fff78793          	addi	a5,a5,-1
    1dc4:	0ff7f713          	andi	a4,a5,255
    1dc8:	fcc42783          	lw	a5,-52(s0)
    1dcc:	ff040693          	addi	a3,s0,-16
    1dd0:	00f687b3          	add	a5,a3,a5
    1dd4:	dee78423          	sb	a4,-536(a5)
    1dd8:	fcc42783          	lw	a5,-52(s0)
    1ddc:	00178793          	addi	a5,a5,1
    1de0:	fcf42623          	sw	a5,-52(s0)
    1de4:	fcc42703          	lw	a4,-52(s0)
    1de8:	00300793          	li	a5,3
    1dec:	fce7d2e3          	bge	a5,a4,1db0 <main+0x5ec>
    1df0:	28c0006f          	j	207c <__stack_size+0x7c>
    1df4:	fe244703          	lbu	a4,-30(s0)
    1df8:	04400793          	li	a5,68
    1dfc:	04f71e63          	bne	a4,a5,1e58 <main+0x694>
    1e00:	fe444783          	lbu	a5,-28(s0)
    1e04:	0017f793          	andi	a5,a5,1
    1e08:	04078863          	beqz	a5,1e58 <main+0x694>
    1e0c:	fc042423          	sw	zero,-56(s0)
    1e10:	0380006f          	j	1e48 <main+0x684>
    1e14:	fc842783          	lw	a5,-56(s0)
    1e18:	ff040713          	addi	a4,s0,-16
    1e1c:	00f707b3          	add	a5,a4,a5
    1e20:	de87c783          	lbu	a5,-536(a5)
    1e24:	00178793          	addi	a5,a5,1
    1e28:	0ff7f713          	andi	a4,a5,255
    1e2c:	fc842783          	lw	a5,-56(s0)
    1e30:	ff040693          	addi	a3,s0,-16
    1e34:	00f687b3          	add	a5,a3,a5
    1e38:	dee78423          	sb	a4,-536(a5)
    1e3c:	fc842783          	lw	a5,-56(s0)
    1e40:	00178793          	addi	a5,a5,1
    1e44:	fcf42423          	sw	a5,-56(s0)
    1e48:	fc842703          	lw	a4,-56(s0)
    1e4c:	00300793          	li	a5,3
    1e50:	fce7d2e3          	bge	a5,a4,1e14 <main+0x650>
    1e54:	2280006f          	j	207c <__stack_size+0x7c>
    1e58:	fe244703          	lbu	a4,-30(s0)
    1e5c:	05700793          	li	a5,87
    1e60:	0ef71c63          	bne	a4,a5,1f58 <main+0x794>
    1e64:	fc042223          	sw	zero,-60(s0)
    1e68:	0680006f          	j	1ed0 <main+0x70c>
    1e6c:	fc442783          	lw	a5,-60(s0)
    1e70:	ff040713          	addi	a4,s0,-16
    1e74:	00f707b3          	add	a5,a4,a5
    1e78:	de87c703          	lbu	a4,-536(a5)
    1e7c:	dda44783          	lbu	a5,-550(s0)
    1e80:	40f707b3          	sub	a5,a4,a5
    1e84:	0ff7f713          	andi	a4,a5,255
    1e88:	fc442783          	lw	a5,-60(s0)
    1e8c:	ff040693          	addi	a3,s0,-16
    1e90:	00f687b3          	add	a5,a3,a5
    1e94:	dee78023          	sb	a4,-544(a5)
    1e98:	fc442783          	lw	a5,-60(s0)
    1e9c:	ff040713          	addi	a4,s0,-16
    1ea0:	00f707b3          	add	a5,a4,a5
    1ea4:	de47c703          	lbu	a4,-540(a5)
    1ea8:	dd644783          	lbu	a5,-554(s0)
    1eac:	40f707b3          	sub	a5,a4,a5
    1eb0:	0ff7f713          	andi	a4,a5,255
    1eb4:	fc442783          	lw	a5,-60(s0)
    1eb8:	ff040693          	addi	a3,s0,-16
    1ebc:	00f687b3          	add	a5,a3,a5
    1ec0:	dce78e23          	sb	a4,-548(a5)
    1ec4:	fc442783          	lw	a5,-60(s0)
    1ec8:	00178793          	addi	a5,a5,1
    1ecc:	fcf42223          	sw	a5,-60(s0)
    1ed0:	fc442703          	lw	a4,-60(s0)
    1ed4:	00300793          	li	a5,3
    1ed8:	f8e7dae3          	bge	a5,a4,1e6c <main+0x6a8>
    1edc:	fc042023          	sw	zero,-64(s0)
    1ee0:	0680006f          	j	1f48 <main+0x784>
    1ee4:	dda44703          	lbu	a4,-550(s0)
    1ee8:	fc042783          	lw	a5,-64(s0)
    1eec:	ff040693          	addi	a3,s0,-16
    1ef0:	00f687b3          	add	a5,a3,a5
    1ef4:	ddc7c783          	lbu	a5,-548(a5)
    1ef8:	40f707b3          	sub	a5,a4,a5
    1efc:	0ff7f713          	andi	a4,a5,255
    1f00:	fc042783          	lw	a5,-64(s0)
    1f04:	ff040693          	addi	a3,s0,-16
    1f08:	00f687b3          	add	a5,a3,a5
    1f0c:	dee78423          	sb	a4,-536(a5)
    1f10:	fc042783          	lw	a5,-64(s0)
    1f14:	ff040713          	addi	a4,s0,-16
    1f18:	00f707b3          	add	a5,a4,a5
    1f1c:	de07c703          	lbu	a4,-544(a5)
    1f20:	dd644783          	lbu	a5,-554(s0)
    1f24:	00f707b3          	add	a5,a4,a5
    1f28:	0ff7f713          	andi	a4,a5,255
    1f2c:	fc042783          	lw	a5,-64(s0)
    1f30:	ff040693          	addi	a3,s0,-16
    1f34:	00f687b3          	add	a5,a3,a5
    1f38:	dee78223          	sb	a4,-540(a5)
    1f3c:	fc042783          	lw	a5,-64(s0)
    1f40:	00178793          	addi	a5,a5,1
    1f44:	fcf42023          	sw	a5,-64(s0)
    1f48:	fc042703          	lw	a4,-64(s0)
    1f4c:	00300793          	li	a5,3
    1f50:	f8e7dae3          	bge	a5,a4,1ee4 <main+0x720>
    1f54:	1280006f          	j	207c <__stack_size+0x7c>
    1f58:	fe244703          	lbu	a4,-30(s0)
    1f5c:	05300793          	li	a5,83
    1f60:	10f71063          	bne	a4,a5,2060 <__stack_size+0x60>
    1f64:	fe444783          	lbu	a5,-28(s0)
    1f68:	0027f793          	andi	a5,a5,2
    1f6c:	0e078a63          	beqz	a5,2060 <__stack_size+0x60>
    1f70:	0e00006f          	j	2050 <__stack_size+0x50>
    1f74:	fa042e23          	sw	zero,-68(s0)
    1f78:	0380006f          	j	1fb0 <main+0x7ec>
    1f7c:	fbc42783          	lw	a5,-68(s0)
    1f80:	ff040713          	addi	a4,s0,-16
    1f84:	00f707b3          	add	a5,a4,a5
    1f88:	de47c783          	lbu	a5,-540(a5)
    1f8c:	fff78793          	addi	a5,a5,-1
    1f90:	0ff7f713          	andi	a4,a5,255
    1f94:	fbc42783          	lw	a5,-68(s0)
    1f98:	ff040693          	addi	a3,s0,-16
    1f9c:	00f687b3          	add	a5,a3,a5
    1fa0:	dee78223          	sb	a4,-540(a5)
    1fa4:	fbc42783          	lw	a5,-68(s0)
    1fa8:	00178793          	addi	a5,a5,1
    1fac:	faf42e23          	sw	a5,-68(s0)
    1fb0:	fbc42703          	lw	a4,-68(s0)
    1fb4:	00300793          	li	a5,3
    1fb8:	fce7d2e3          	bge	a5,a4,1f7c <main+0x7b8>
    1fbc:	fa042c23          	sw	zero,-72(s0)
    1fc0:	0840006f          	j	2044 <__stack_size+0x44>
    1fc4:	fb842783          	lw	a5,-72(s0)
    1fc8:	ff040713          	addi	a4,s0,-16
    1fcc:	00f707b3          	add	a5,a4,a5
    1fd0:	de47c783          	lbu	a5,-540(a5)
    1fd4:	00079a63          	bnez	a5,1fe8 <main+0x824>
    1fd8:	fe444783          	lbu	a5,-28(s0)
    1fdc:	ffd7f793          	andi	a5,a5,-3
    1fe0:	fef40223          	sb	a5,-28(s0)
    1fe4:	06c0006f          	j	2050 <__stack_size+0x50>
    1fe8:	fb842783          	lw	a5,-72(s0)
    1fec:	ff040713          	addi	a4,s0,-16
    1ff0:	00f707b3          	add	a5,a4,a5
    1ff4:	de47c783          	lbu	a5,-540(a5)
    1ff8:	fff78793          	addi	a5,a5,-1
    1ffc:	fb842703          	lw	a4,-72(s0)
    2000:	ff040693          	addi	a3,s0,-16
    2004:	00e68733          	add	a4,a3,a4
    2008:	de874703          	lbu	a4,-536(a4)
    200c:	00479793          	slli	a5,a5,0x4
    2010:	ff040693          	addi	a3,s0,-16
    2014:	00f687b3          	add	a5,a3,a5
    2018:	00e787b3          	add	a5,a5,a4
    201c:	dec7c703          	lbu	a4,-532(a5)
    2020:	00100793          	li	a5,1
    2024:	00f71a63          	bne	a4,a5,2038 <__stack_size+0x38>
    2028:	fe444783          	lbu	a5,-28(s0)
    202c:	ffd7f793          	andi	a5,a5,-3
    2030:	fef40223          	sb	a5,-28(s0)
    2034:	01c0006f          	j	2050 <__stack_size+0x50>
    2038:	fb842783          	lw	a5,-72(s0)
    203c:	00178793          	addi	a5,a5,1
    2040:	faf42c23          	sw	a5,-72(s0)
    2044:	fb842703          	lw	a4,-72(s0)
    2048:	00300793          	li	a5,3
    204c:	f6e7dce3          	bge	a5,a4,1fc4 <main+0x800>
    2050:	fe444783          	lbu	a5,-28(s0)
    2054:	0027f793          	andi	a5,a5,2
    2058:	f0079ee3          	bnez	a5,1f74 <main+0x7b0>
    205c:	0200006f          	j	207c <__stack_size+0x7c>
    2060:	fe244703          	lbu	a4,-30(s0)
    2064:	05100793          	li	a5,81
    2068:	00f71a63          	bne	a4,a5,207c <__stack_size+0x7c>
    206c:	fe0407a3          	sb	zero,-17(s0)
    2070:	00000513          	li	a0,0
    2074:	e24ff0ef          	jal	ra,1698 <ui_draw_scene>
    2078:	62d0006f          	j	2ea4 <__stack_size+0xea4>
    207c:	fef44703          	lbu	a4,-17(s0)
    2080:	00300793          	li	a5,3
    2084:	88f716e3          	bne	a4,a5,1910 <main+0x14c>
    2088:	fe244703          	lbu	a4,-30(s0)
    208c:	04100793          	li	a5,65
    2090:	88f700e3          	beq	a4,a5,1910 <main+0x14c>
    2094:	fe244703          	lbu	a4,-30(s0)
    2098:	05700793          	li	a5,87
    209c:	86f70ae3          	beq	a4,a5,1910 <main+0x14c>
    20a0:	fe244703          	lbu	a4,-30(s0)
    20a4:	05300793          	li	a5,83
    20a8:	86f704e3          	beq	a4,a5,1910 <main+0x14c>
    20ac:	fe244703          	lbu	a4,-30(s0)
    20b0:	04400793          	li	a5,68
    20b4:	84f70ee3          	beq	a4,a5,1910 <main+0x14c>
    20b8:	fe244703          	lbu	a4,-30(s0)
    20bc:	05100793          	li	a5,81
    20c0:	84f718e3          	bne	a4,a5,1910 <main+0x14c>
    20c4:	fe0407a3          	sb	zero,-17(s0)
    20c8:	00000513          	li	a0,0
    20cc:	dccff0ef          	jal	ra,1698 <ui_draw_scene>
    20d0:	5d50006f          	j	2ea4 <__stack_size+0xea4>
    20d4:	fef44783          	lbu	a5,-17(s0)
    20d8:	1c079c63          	bnez	a5,22b0 <__stack_size+0x2b0>
    20dc:	fa042a23          	sw	zero,-76(s0)
    20e0:	0640006f          	j	2144 <__stack_size+0x144>
    20e4:	400007b7          	lui	a5,0x40000
    20e8:	00478793          	addi	a5,a5,4 # 40000004 <__freertos_irq_stack_top+0x2fffc004>
    20ec:	0007a683          	lw	a3,0(a5)
    20f0:	400007b7          	lui	a5,0x40000
    20f4:	00478793          	addi	a5,a5,4 # 40000004 <__freertos_irq_stack_top+0x2fffc004>
    20f8:	00002737          	lui	a4,0x2
    20fc:	00e6e733          	or	a4,a3,a4
    2100:	00e7a023          	sw	a4,0(a5)
    2104:	7d000513          	li	a0,2000
    2108:	685000ef          	jal	ra,2f8c <busy_wait>
    210c:	400007b7          	lui	a5,0x40000
    2110:	00478793          	addi	a5,a5,4 # 40000004 <__freertos_irq_stack_top+0x2fffc004>
    2114:	0007a683          	lw	a3,0(a5)
    2118:	400007b7          	lui	a5,0x40000
    211c:	00478793          	addi	a5,a5,4 # 40000004 <__freertos_irq_stack_top+0x2fffc004>
    2120:	ffffe737          	lui	a4,0xffffe
    2124:	fff70713          	addi	a4,a4,-1 # ffffdfff <__freertos_irq_stack_top+0xefff9fff>
    2128:	00e6f733          	and	a4,a3,a4
    212c:	00e7a023          	sw	a4,0(a5)
    2130:	7d000513          	li	a0,2000
    2134:	659000ef          	jal	ra,2f8c <busy_wait>
    2138:	fb442783          	lw	a5,-76(s0)
    213c:	00178793          	addi	a5,a5,1
    2140:	faf42a23          	sw	a5,-76(s0)
    2144:	fb442703          	lw	a4,-76(s0)
    2148:	03100793          	li	a5,49
    214c:	f8e7dce3          	bge	a5,a4,20e4 <__stack_size+0xe4>
    2150:	fa042823          	sw	zero,-80(s0)
    2154:	0640006f          	j	21b8 <__stack_size+0x1b8>
    2158:	400007b7          	lui	a5,0x40000
    215c:	00478793          	addi	a5,a5,4 # 40000004 <__freertos_irq_stack_top+0x2fffc004>
    2160:	0007a683          	lw	a3,0(a5)
    2164:	400007b7          	lui	a5,0x40000
    2168:	00478793          	addi	a5,a5,4 # 40000004 <__freertos_irq_stack_top+0x2fffc004>
    216c:	00002737          	lui	a4,0x2
    2170:	00e6e733          	or	a4,a3,a4
    2174:	00e7a023          	sw	a4,0(a5)
    2178:	59400513          	li	a0,1428
    217c:	611000ef          	jal	ra,2f8c <busy_wait>
    2180:	400007b7          	lui	a5,0x40000
    2184:	00478793          	addi	a5,a5,4 # 40000004 <__freertos_irq_stack_top+0x2fffc004>
    2188:	0007a683          	lw	a3,0(a5)
    218c:	400007b7          	lui	a5,0x40000
    2190:	00478793          	addi	a5,a5,4 # 40000004 <__freertos_irq_stack_top+0x2fffc004>
    2194:	ffffe737          	lui	a4,0xffffe
    2198:	fff70713          	addi	a4,a4,-1 # ffffdfff <__freertos_irq_stack_top+0xefff9fff>
    219c:	00e6f733          	and	a4,a3,a4
    21a0:	00e7a023          	sw	a4,0(a5)
    21a4:	59400513          	li	a0,1428
    21a8:	5e5000ef          	jal	ra,2f8c <busy_wait>
    21ac:	fb042783          	lw	a5,-80(s0)
    21b0:	00178793          	addi	a5,a5,1
    21b4:	faf42823          	sw	a5,-80(s0)
    21b8:	fb042703          	lw	a4,-80(s0)
    21bc:	03100793          	li	a5,49
    21c0:	f8e7dce3          	bge	a5,a4,2158 <__stack_size+0x158>
    21c4:	fa042623          	sw	zero,-84(s0)
    21c8:	0640006f          	j	222c <__stack_size+0x22c>
    21cc:	400007b7          	lui	a5,0x40000
    21d0:	00478793          	addi	a5,a5,4 # 40000004 <__freertos_irq_stack_top+0x2fffc004>
    21d4:	0007a683          	lw	a3,0(a5)
    21d8:	400007b7          	lui	a5,0x40000
    21dc:	00478793          	addi	a5,a5,4 # 40000004 <__freertos_irq_stack_top+0x2fffc004>
    21e0:	00002737          	lui	a4,0x2
    21e4:	00e6e733          	or	a4,a3,a4
    21e8:	00e7a023          	sw	a4,0(a5)
    21ec:	7d000513          	li	a0,2000
    21f0:	59d000ef          	jal	ra,2f8c <busy_wait>
    21f4:	400007b7          	lui	a5,0x40000
    21f8:	00478793          	addi	a5,a5,4 # 40000004 <__freertos_irq_stack_top+0x2fffc004>
    21fc:	0007a683          	lw	a3,0(a5)
    2200:	400007b7          	lui	a5,0x40000
    2204:	00478793          	addi	a5,a5,4 # 40000004 <__freertos_irq_stack_top+0x2fffc004>
    2208:	ffffe737          	lui	a4,0xffffe
    220c:	fff70713          	addi	a4,a4,-1 # ffffdfff <__freertos_irq_stack_top+0xefff9fff>
    2210:	00e6f733          	and	a4,a3,a4
    2214:	00e7a023          	sw	a4,0(a5)
    2218:	7d000513          	li	a0,2000
    221c:	571000ef          	jal	ra,2f8c <busy_wait>
    2220:	fac42783          	lw	a5,-84(s0)
    2224:	00178793          	addi	a5,a5,1
    2228:	faf42623          	sw	a5,-84(s0)
    222c:	fac42703          	lw	a4,-84(s0)
    2230:	03100793          	li	a5,49
    2234:	f8e7dce3          	bge	a5,a4,21cc <__stack_size+0x1cc>
    2238:	fa042423          	sw	zero,-88(s0)
    223c:	0640006f          	j	22a0 <__stack_size+0x2a0>
    2240:	400007b7          	lui	a5,0x40000
    2244:	00478793          	addi	a5,a5,4 # 40000004 <__freertos_irq_stack_top+0x2fffc004>
    2248:	0007a683          	lw	a3,0(a5)
    224c:	400007b7          	lui	a5,0x40000
    2250:	00478793          	addi	a5,a5,4 # 40000004 <__freertos_irq_stack_top+0x2fffc004>
    2254:	00002737          	lui	a4,0x2
    2258:	00e6e733          	or	a4,a3,a4
    225c:	00e7a023          	sw	a4,0(a5)
    2260:	4e200513          	li	a0,1250
    2264:	529000ef          	jal	ra,2f8c <busy_wait>
    2268:	400007b7          	lui	a5,0x40000
    226c:	00478793          	addi	a5,a5,4 # 40000004 <__freertos_irq_stack_top+0x2fffc004>
    2270:	0007a683          	lw	a3,0(a5)
    2274:	400007b7          	lui	a5,0x40000
    2278:	00478793          	addi	a5,a5,4 # 40000004 <__freertos_irq_stack_top+0x2fffc004>
    227c:	ffffe737          	lui	a4,0xffffe
    2280:	fff70713          	addi	a4,a4,-1 # ffffdfff <__freertos_irq_stack_top+0xefff9fff>
    2284:	00e6f733          	and	a4,a3,a4
    2288:	00e7a023          	sw	a4,0(a5)
    228c:	4e200513          	li	a0,1250
    2290:	4fd000ef          	jal	ra,2f8c <busy_wait>
    2294:	fa842783          	lw	a5,-88(s0)
    2298:	00178793          	addi	a5,a5,1
    229c:	faf42423          	sw	a5,-88(s0)
    22a0:	fa842703          	lw	a4,-88(s0)
    22a4:	03100793          	li	a5,49
    22a8:	f8e7dce3          	bge	a5,a4,2240 <__stack_size+0x240>
    22ac:	e64ff06f          	j	1910 <main+0x14c>
    22b0:	fef44703          	lbu	a4,-17(s0)
    22b4:	00100793          	li	a5,1
    22b8:	50f71863          	bne	a4,a5,27c8 <__stack_size+0x7c8>
    22bc:	fec44703          	lbu	a4,-20(s0)
    22c0:	00f00793          	li	a5,15
    22c4:	00e7ea63          	bltu	a5,a4,22d8 <__stack_size+0x2d8>
    22c8:	fec44783          	lbu	a5,-20(s0)
    22cc:	00178793          	addi	a5,a5,1
    22d0:	fef40623          	sb	a5,-20(s0)
    22d4:	3d10006f          	j	2ea4 <__stack_size+0xea4>
    22d8:	fe040623          	sb	zero,-20(s0)
    22dc:	400007b7          	lui	a5,0x40000
    22e0:	00478793          	addi	a5,a5,4 # 40000004 <__freertos_irq_stack_top+0x2fffc004>
    22e4:	0007a683          	lw	a3,0(a5)
    22e8:	400007b7          	lui	a5,0x40000
    22ec:	00478793          	addi	a5,a5,4 # 40000004 <__freertos_irq_stack_top+0x2fffc004>
    22f0:	fffff737          	lui	a4,0xfffff
    22f4:	fff70713          	addi	a4,a4,-1 # ffffefff <__freertos_irq_stack_top+0xefffafff>
    22f8:	00e6f733          	and	a4,a3,a4
    22fc:	00e7a023          	sw	a4,0(a5)
    2300:	fa0403a3          	sb	zero,-89(s0)
    2304:	fa040323          	sb	zero,-90(s0)
    2308:	fa042023          	sw	zero,-96(s0)
    230c:	0f00006f          	j	23fc <__stack_size+0x3fc>
    2310:	f8042e23          	sw	zero,-100(s0)
    2314:	0d00006f          	j	23e4 <__stack_size+0x3e4>
    2318:	fa042783          	lw	a5,-96(s0)
    231c:	00479793          	slli	a5,a5,0x4
    2320:	ff040713          	addi	a4,s0,-16
    2324:	00f70733          	add	a4,a4,a5
    2328:	f9c42783          	lw	a5,-100(s0)
    232c:	00f707b3          	add	a5,a4,a5
    2330:	eac78783          	lb	a5,-340(a5)
    2334:	0af05263          	blez	a5,23d8 <__stack_size+0x3d8>
    2338:	fa042783          	lw	a5,-96(s0)
    233c:	00479793          	slli	a5,a5,0x4
    2340:	ff040713          	addi	a4,s0,-16
    2344:	00f70733          	add	a4,a4,a5
    2348:	f9c42783          	lw	a5,-100(s0)
    234c:	00f707b3          	add	a5,a4,a5
    2350:	eac78783          	lb	a5,-340(a5)
    2354:	0ff7f793          	andi	a5,a5,255
    2358:	00178793          	addi	a5,a5,1
    235c:	0ff7f793          	andi	a5,a5,255
    2360:	01879713          	slli	a4,a5,0x18
    2364:	41875713          	srai	a4,a4,0x18
    2368:	fa042783          	lw	a5,-96(s0)
    236c:	00479793          	slli	a5,a5,0x4
    2370:	ff040693          	addi	a3,s0,-16
    2374:	00f686b3          	add	a3,a3,a5
    2378:	f9c42783          	lw	a5,-100(s0)
    237c:	00f687b3          	add	a5,a3,a5
    2380:	eae78623          	sb	a4,-340(a5)
    2384:	fa042783          	lw	a5,-96(s0)
    2388:	00479793          	slli	a5,a5,0x4
    238c:	ff040713          	addi	a4,s0,-16
    2390:	00f70733          	add	a4,a4,a5
    2394:	f9c42783          	lw	a5,-100(s0)
    2398:	00f707b3          	add	a5,a4,a5
    239c:	eac78783          	lb	a5,-340(a5)
    23a0:	00078713          	mv	a4,a5
    23a4:	fe744783          	lbu	a5,-25(s0)
    23a8:	02e7d863          	bge	a5,a4,23d8 <__stack_size+0x3d8>
    23ac:	fa042783          	lw	a5,-96(s0)
    23b0:	00479793          	slli	a5,a5,0x4
    23b4:	ff040713          	addi	a4,s0,-16
    23b8:	00f70733          	add	a4,a4,a5
    23bc:	f9c42783          	lw	a5,-100(s0)
    23c0:	00f707b3          	add	a5,a4,a5
    23c4:	ea078623          	sb	zero,-340(a5)
    23c8:	f9c42783          	lw	a5,-100(s0)
    23cc:	faf403a3          	sb	a5,-89(s0)
    23d0:	fa042783          	lw	a5,-96(s0)
    23d4:	faf40323          	sb	a5,-90(s0)
    23d8:	f9c42783          	lw	a5,-100(s0)
    23dc:	00178793          	addi	a5,a5,1
    23e0:	f8f42e23          	sw	a5,-100(s0)
    23e4:	f9c42703          	lw	a4,-100(s0)
    23e8:	00f00793          	li	a5,15
    23ec:	f2e7d6e3          	bge	a5,a4,2318 <__stack_size+0x318>
    23f0:	fa042783          	lw	a5,-96(s0)
    23f4:	00178793          	addi	a5,a5,1
    23f8:	faf42023          	sw	a5,-96(s0)
    23fc:	fa042703          	lw	a4,-96(s0)
    2400:	00b00793          	li	a5,11
    2404:	f0e7d6e3          	bge	a5,a4,2310 <__stack_size+0x310>
    2408:	fe644703          	lbu	a4,-26(s0)
    240c:	00100793          	li	a5,1
    2410:	02f71663          	bne	a4,a5,243c <__stack_size+0x43c>
    2414:	feb40783          	lb	a5,-21(s0)
    2418:	0ff7f793          	andi	a5,a5,255
    241c:	fff78793          	addi	a5,a5,-1
    2420:	0ff7f793          	andi	a5,a5,255
    2424:	fef405a3          	sb	a5,-21(s0)
    2428:	feb40783          	lb	a5,-21(s0)
    242c:	0a07d463          	bgez	a5,24d4 <__stack_size+0x4d4>
    2430:	00f00793          	li	a5,15
    2434:	fef405a3          	sb	a5,-21(s0)
    2438:	09c0006f          	j	24d4 <__stack_size+0x4d4>
    243c:	fe644703          	lbu	a4,-26(s0)
    2440:	00200793          	li	a5,2
    2444:	02f71663          	bne	a4,a5,2470 <__stack_size+0x470>
    2448:	fea40783          	lb	a5,-22(s0)
    244c:	0ff7f793          	andi	a5,a5,255
    2450:	00178793          	addi	a5,a5,1
    2454:	0ff7f793          	andi	a5,a5,255
    2458:	fef40523          	sb	a5,-22(s0)
    245c:	fea40703          	lb	a4,-22(s0)
    2460:	00b00793          	li	a5,11
    2464:	06e7d863          	bge	a5,a4,24d4 <__stack_size+0x4d4>
    2468:	fe040523          	sb	zero,-22(s0)
    246c:	0680006f          	j	24d4 <__stack_size+0x4d4>
    2470:	fe644703          	lbu	a4,-26(s0)
    2474:	00300793          	li	a5,3
    2478:	02f71663          	bne	a4,a5,24a4 <__stack_size+0x4a4>
    247c:	fea40783          	lb	a5,-22(s0)
    2480:	0ff7f793          	andi	a5,a5,255
    2484:	fff78793          	addi	a5,a5,-1
    2488:	0ff7f793          	andi	a5,a5,255
    248c:	fef40523          	sb	a5,-22(s0)
    2490:	fea40783          	lb	a5,-22(s0)
    2494:	0407d063          	bgez	a5,24d4 <__stack_size+0x4d4>
    2498:	00b00793          	li	a5,11
    249c:	fef40523          	sb	a5,-22(s0)
    24a0:	0340006f          	j	24d4 <__stack_size+0x4d4>
    24a4:	fe644703          	lbu	a4,-26(s0)
    24a8:	00400793          	li	a5,4
    24ac:	02f71463          	bne	a4,a5,24d4 <__stack_size+0x4d4>
    24b0:	feb40783          	lb	a5,-21(s0)
    24b4:	0ff7f793          	andi	a5,a5,255
    24b8:	00178793          	addi	a5,a5,1
    24bc:	0ff7f793          	andi	a5,a5,255
    24c0:	fef405a3          	sb	a5,-21(s0)
    24c4:	feb40703          	lb	a4,-21(s0)
    24c8:	00f00793          	li	a5,15
    24cc:	00e7d463          	bge	a5,a4,24d4 <__stack_size+0x4d4>
    24d0:	fe0405a3          	sb	zero,-21(s0)
    24d4:	fea40783          	lb	a5,-22(s0)
    24d8:	feb40703          	lb	a4,-21(s0)
    24dc:	00479793          	slli	a5,a5,0x4
    24e0:	ff040693          	addi	a3,s0,-16
    24e4:	00f687b3          	add	a5,a3,a5
    24e8:	00e787b3          	add	a5,a5,a4
    24ec:	eac78783          	lb	a5,-340(a5)
    24f0:	00f05c63          	blez	a5,2508 <__stack_size+0x508>
    24f4:	dd1fe0ef          	jal	ra,12c4 <ui_draw_gameover>
    24f8:	00000513          	li	a0,0
    24fc:	99cff0ef          	jal	ra,1698 <ui_draw_scene>
    2500:	fe0407a3          	sb	zero,-17(s0)
    2504:	1a10006f          	j	2ea4 <__stack_size+0xea4>
    2508:	fea40783          	lb	a5,-22(s0)
    250c:	feb40703          	lb	a4,-21(s0)
    2510:	00479793          	slli	a5,a5,0x4
    2514:	ff040693          	addi	a3,s0,-16
    2518:	00f687b3          	add	a5,a3,a5
    251c:	00e787b3          	add	a5,a5,a4
    2520:	eac78703          	lb	a4,-340(a5)
    2524:	fff00793          	li	a5,-1
    2528:	14f71e63          	bne	a4,a5,2684 <__stack_size+0x684>
    252c:	400007b7          	lui	a5,0x40000
    2530:	00478793          	addi	a5,a5,4 # 40000004 <__freertos_irq_stack_top+0x2fffc004>
    2534:	0007a683          	lw	a3,0(a5)
    2538:	400007b7          	lui	a5,0x40000
    253c:	00478793          	addi	a5,a5,4 # 40000004 <__freertos_irq_stack_top+0x2fffc004>
    2540:	00001737          	lui	a4,0x1
    2544:	00e6e733          	or	a4,a3,a4
    2548:	00e7a023          	sw	a4,0(a5)
    254c:	f8042c23          	sw	zero,-104(s0)
    2550:	0200006f          	j	2570 <__stack_size+0x570>
    2554:	00000613          	li	a2,0
    2558:	08000593          	li	a1,128
    255c:	00000513          	li	a0,0
    2560:	bf1fe0ef          	jal	ra,1150 <led_send_rgb>
    2564:	f9842783          	lw	a5,-104(s0)
    2568:	00178793          	addi	a5,a5,1
    256c:	f8f42c23          	sw	a5,-104(s0)
    2570:	fe744783          	lbu	a5,-25(s0)
    2574:	ffe78793          	addi	a5,a5,-2
    2578:	f9842703          	lw	a4,-104(s0)
    257c:	fcf74ce3          	blt	a4,a5,2554 <__stack_size+0x554>
    2580:	fea40783          	lb	a5,-22(s0)
    2584:	feb40703          	lb	a4,-21(s0)
    2588:	00479793          	slli	a5,a5,0x4
    258c:	ff040693          	addi	a3,s0,-16
    2590:	00f687b3          	add	a5,a3,a5
    2594:	00e787b3          	add	a5,a5,a4
    2598:	00100713          	li	a4,1
    259c:	eae78623          	sb	a4,-340(a5)
    25a0:	fe744783          	lbu	a5,-25(s0)
    25a4:	00178793          	addi	a5,a5,1
    25a8:	fef403a3          	sb	a5,-25(s0)
    25ac:	fed44703          	lbu	a4,-19(s0)
    25b0:	00070793          	mv	a5,a4
    25b4:	00379793          	slli	a5,a5,0x3
    25b8:	40e787b3          	sub	a5,a5,a4
    25bc:	00479793          	slli	a5,a5,0x4
    25c0:	00e78733          	add	a4,a5,a4
    25c4:	fe744783          	lbu	a5,-25(s0)
    25c8:	0bf00693          	li	a3,191
    25cc:	40f687b3          	sub	a5,a3,a5
    25d0:	02f767b3          	rem	a5,a4,a5
    25d4:	f8f42a23          	sw	a5,-108(s0)
    25d8:	f8042823          	sw	zero,-112(s0)
    25dc:	09c0006f          	j	2678 <__stack_size+0x678>
    25e0:	f8042623          	sw	zero,-116(s0)
    25e4:	07c0006f          	j	2660 <__stack_size+0x660>
    25e8:	f9042783          	lw	a5,-112(s0)
    25ec:	00479793          	slli	a5,a5,0x4
    25f0:	ff040713          	addi	a4,s0,-16
    25f4:	00f70733          	add	a4,a4,a5
    25f8:	f8c42783          	lw	a5,-116(s0)
    25fc:	00f707b3          	add	a5,a4,a5
    2600:	eac78783          	lb	a5,-340(a5)
    2604:	04f04663          	bgtz	a5,2650 <__stack_size+0x650>
    2608:	f9442783          	lw	a5,-108(s0)
    260c:	fff78793          	addi	a5,a5,-1
    2610:	f8f42a23          	sw	a5,-108(s0)
    2614:	f9442783          	lw	a5,-108(s0)
    2618:	02079e63          	bnez	a5,2654 <__stack_size+0x654>
    261c:	f9042783          	lw	a5,-112(s0)
    2620:	00479793          	slli	a5,a5,0x4
    2624:	ff040713          	addi	a4,s0,-16
    2628:	00f70733          	add	a4,a4,a5
    262c:	f8c42783          	lw	a5,-116(s0)
    2630:	00f707b3          	add	a5,a4,a5
    2634:	fff00713          	li	a4,-1
    2638:	eae78623          	sb	a4,-340(a5)
    263c:	f8c42783          	lw	a5,-116(s0)
    2640:	fef404a3          	sb	a5,-23(s0)
    2644:	f9042783          	lw	a5,-112(s0)
    2648:	fef40423          	sb	a5,-24(s0)
    264c:	0200006f          	j	266c <__stack_size+0x66c>
    2650:	00000013          	nop
    2654:	f8c42783          	lw	a5,-116(s0)
    2658:	00178793          	addi	a5,a5,1
    265c:	f8f42623          	sw	a5,-116(s0)
    2660:	f8c42703          	lw	a4,-116(s0)
    2664:	00f00793          	li	a5,15
    2668:	f8e7d0e3          	bge	a5,a4,25e8 <__stack_size+0x5e8>
    266c:	f9042783          	lw	a5,-112(s0)
    2670:	00178793          	addi	a5,a5,1
    2674:	f8f42823          	sw	a5,-112(s0)
    2678:	f9042703          	lw	a4,-112(s0)
    267c:	00b00793          	li	a5,11
    2680:	f6e7d0e3          	bge	a5,a4,25e0 <__stack_size+0x5e0>
    2684:	fea40783          	lb	a5,-22(s0)
    2688:	feb40703          	lb	a4,-21(s0)
    268c:	00479793          	slli	a5,a5,0x4
    2690:	ff040693          	addi	a3,s0,-16
    2694:	00f687b3          	add	a5,a3,a5
    2698:	00e787b3          	add	a5,a5,a4
    269c:	00100713          	li	a4,1
    26a0:	eae78623          	sb	a4,-340(a5)
    26a4:	fe944783          	lbu	a5,-23(s0)
    26a8:	01079793          	slli	a5,a5,0x10
    26ac:	0107d793          	srli	a5,a5,0x10
    26b0:	00078713          	mv	a4,a5
    26b4:	00070793          	mv	a5,a4
    26b8:	00279793          	slli	a5,a5,0x2
    26bc:	00e787b3          	add	a5,a5,a4
    26c0:	00279793          	slli	a5,a5,0x2
    26c4:	01079693          	slli	a3,a5,0x10
    26c8:	0106d693          	srli	a3,a3,0x10
    26cc:	fe844783          	lbu	a5,-24(s0)
    26d0:	01079793          	slli	a5,a5,0x10
    26d4:	0107d793          	srli	a5,a5,0x10
    26d8:	00078713          	mv	a4,a5
    26dc:	00070793          	mv	a5,a4
    26e0:	00279793          	slli	a5,a5,0x2
    26e4:	00e787b3          	add	a5,a5,a4
    26e8:	00279793          	slli	a5,a5,0x2
    26ec:	01079793          	slli	a5,a5,0x10
    26f0:	0107d793          	srli	a5,a5,0x10
    26f4:	00000613          	li	a2,0
    26f8:	00078593          	mv	a1,a5
    26fc:	00068513          	mv	a0,a3
    2700:	e45fe0ef          	jal	ra,1544 <ui_draw_item>
    2704:	fa744783          	lbu	a5,-89(s0)
    2708:	01079793          	slli	a5,a5,0x10
    270c:	0107d793          	srli	a5,a5,0x10
    2710:	00078713          	mv	a4,a5
    2714:	00070793          	mv	a5,a4
    2718:	00279793          	slli	a5,a5,0x2
    271c:	00e787b3          	add	a5,a5,a4
    2720:	00279793          	slli	a5,a5,0x2
    2724:	01079693          	slli	a3,a5,0x10
    2728:	0106d693          	srli	a3,a3,0x10
    272c:	fa644783          	lbu	a5,-90(s0)
    2730:	01079793          	slli	a5,a5,0x10
    2734:	0107d793          	srli	a5,a5,0x10
    2738:	00078713          	mv	a4,a5
    273c:	00070793          	mv	a5,a4
    2740:	00279793          	slli	a5,a5,0x2
    2744:	00e787b3          	add	a5,a5,a4
    2748:	00279793          	slli	a5,a5,0x2
    274c:	01079793          	slli	a5,a5,0x10
    2750:	0107d793          	srli	a5,a5,0x10
    2754:	00200613          	li	a2,2
    2758:	00078593          	mv	a1,a5
    275c:	00068513          	mv	a0,a3
    2760:	de5fe0ef          	jal	ra,1544 <ui_draw_item>
    2764:	feb40783          	lb	a5,-21(s0)
    2768:	01079793          	slli	a5,a5,0x10
    276c:	0107d793          	srli	a5,a5,0x10
    2770:	00078713          	mv	a4,a5
    2774:	00070793          	mv	a5,a4
    2778:	00279793          	slli	a5,a5,0x2
    277c:	00e787b3          	add	a5,a5,a4
    2780:	00279793          	slli	a5,a5,0x2
    2784:	01079693          	slli	a3,a5,0x10
    2788:	0106d693          	srli	a3,a3,0x10
    278c:	fea40783          	lb	a5,-22(s0)
    2790:	01079793          	slli	a5,a5,0x10
    2794:	0107d793          	srli	a5,a5,0x10
    2798:	00078713          	mv	a4,a5
    279c:	00070793          	mv	a5,a4
    27a0:	00279793          	slli	a5,a5,0x2
    27a4:	00e787b3          	add	a5,a5,a4
    27a8:	00279793          	slli	a5,a5,0x2
    27ac:	01079793          	slli	a5,a5,0x10
    27b0:	0107d793          	srli	a5,a5,0x10
    27b4:	00100613          	li	a2,1
    27b8:	00078593          	mv	a1,a5
    27bc:	00068513          	mv	a0,a3
    27c0:	d85fe0ef          	jal	ra,1544 <ui_draw_item>
    27c4:	94cff06f          	j	1910 <main+0x14c>
    27c8:	fef44703          	lbu	a4,-17(s0)
    27cc:	00200793          	li	a5,2
    27d0:	94f71063          	bne	a4,a5,1910 <main+0x14c>
    27d4:	fe544703          	lbu	a4,-27(s0)
    27d8:	00700793          	li	a5,7
    27dc:	00e7ea63          	bltu	a5,a4,27f0 <__stack_size+0x7f0>
    27e0:	fe544783          	lbu	a5,-27(s0)
    27e4:	00178793          	addi	a5,a5,1
    27e8:	fef402a3          	sb	a5,-27(s0)
    27ec:	6b80006f          	j	2ea4 <__stack_size+0xea4>
    27f0:	fe0402a3          	sb	zero,-27(s0)
    27f4:	00700793          	li	a5,7
    27f8:	fef40223          	sb	a5,-28(s0)
    27fc:	f8042423          	sw	zero,-120(s0)
    2800:	1040006f          	j	2904 <__stack_size+0x904>
    2804:	f8842783          	lw	a5,-120(s0)
    2808:	ff040713          	addi	a4,s0,-16
    280c:	00f707b3          	add	a5,a4,a5
    2810:	de87c783          	lbu	a5,-536(a5)
    2814:	00079a63          	bnez	a5,2828 <__stack_size+0x828>
    2818:	fe444783          	lbu	a5,-28(s0)
    281c:	ffb7f793          	andi	a5,a5,-5
    2820:	fef40223          	sb	a5,-28(s0)
    2824:	0ec0006f          	j	2910 <__stack_size+0x910>
    2828:	f8842783          	lw	a5,-120(s0)
    282c:	ff040713          	addi	a4,s0,-16
    2830:	00f707b3          	add	a5,a4,a5
    2834:	de47c783          	lbu	a5,-540(a5)
    2838:	00078693          	mv	a3,a5
    283c:	f8842783          	lw	a5,-120(s0)
    2840:	ff040713          	addi	a4,s0,-16
    2844:	00f707b3          	add	a5,a4,a5
    2848:	de87c783          	lbu	a5,-536(a5)
    284c:	fff78713          	addi	a4,a5,-1
    2850:	00469793          	slli	a5,a3,0x4
    2854:	ff040693          	addi	a3,s0,-16
    2858:	00f687b3          	add	a5,a3,a5
    285c:	00e787b3          	add	a5,a5,a4
    2860:	dec7c703          	lbu	a4,-532(a5)
    2864:	00100793          	li	a5,1
    2868:	00f71a63          	bne	a4,a5,287c <__stack_size+0x87c>
    286c:	fe444783          	lbu	a5,-28(s0)
    2870:	ffb7f793          	andi	a5,a5,-5
    2874:	fef40223          	sb	a5,-28(s0)
    2878:	0980006f          	j	2910 <__stack_size+0x910>
    287c:	f8842783          	lw	a5,-120(s0)
    2880:	ff040713          	addi	a4,s0,-16
    2884:	00f707b3          	add	a5,a4,a5
    2888:	de87c703          	lbu	a4,-536(a5)
    288c:	00f00793          	li	a5,15
    2890:	00f71a63          	bne	a4,a5,28a4 <__stack_size+0x8a4>
    2894:	fe444783          	lbu	a5,-28(s0)
    2898:	ffe7f793          	andi	a5,a5,-2
    289c:	fef40223          	sb	a5,-28(s0)
    28a0:	0700006f          	j	2910 <__stack_size+0x910>
    28a4:	f8842783          	lw	a5,-120(s0)
    28a8:	ff040713          	addi	a4,s0,-16
    28ac:	00f707b3          	add	a5,a4,a5
    28b0:	de47c783          	lbu	a5,-540(a5)
    28b4:	00078693          	mv	a3,a5
    28b8:	f8842783          	lw	a5,-120(s0)
    28bc:	ff040713          	addi	a4,s0,-16
    28c0:	00f707b3          	add	a5,a4,a5
    28c4:	de87c783          	lbu	a5,-536(a5)
    28c8:	00178713          	addi	a4,a5,1
    28cc:	00469793          	slli	a5,a3,0x4
    28d0:	ff040693          	addi	a3,s0,-16
    28d4:	00f687b3          	add	a5,a3,a5
    28d8:	00e787b3          	add	a5,a5,a4
    28dc:	dec7c703          	lbu	a4,-532(a5)
    28e0:	00100793          	li	a5,1
    28e4:	00f71a63          	bne	a4,a5,28f8 <__stack_size+0x8f8>
    28e8:	fe444783          	lbu	a5,-28(s0)
    28ec:	ffe7f793          	andi	a5,a5,-2
    28f0:	fef40223          	sb	a5,-28(s0)
    28f4:	01c0006f          	j	2910 <__stack_size+0x910>
    28f8:	f8842783          	lw	a5,-120(s0)
    28fc:	00178793          	addi	a5,a5,1
    2900:	f8f42423          	sw	a5,-120(s0)
    2904:	f8842703          	lw	a4,-120(s0)
    2908:	00300793          	li	a5,3
    290c:	eee7dce3          	bge	a5,a4,2804 <__stack_size+0x804>
    2910:	f8042223          	sw	zero,-124(s0)
    2914:	0840006f          	j	2998 <__stack_size+0x998>
    2918:	f8442783          	lw	a5,-124(s0)
    291c:	ff040713          	addi	a4,s0,-16
    2920:	00f707b3          	add	a5,a4,a5
    2924:	de47c783          	lbu	a5,-540(a5)
    2928:	00079a63          	bnez	a5,293c <__stack_size+0x93c>
    292c:	fe444783          	lbu	a5,-28(s0)
    2930:	ffd7f793          	andi	a5,a5,-3
    2934:	fef40223          	sb	a5,-28(s0)
    2938:	06c0006f          	j	29a4 <__stack_size+0x9a4>
    293c:	f8442783          	lw	a5,-124(s0)
    2940:	ff040713          	addi	a4,s0,-16
    2944:	00f707b3          	add	a5,a4,a5
    2948:	de47c783          	lbu	a5,-540(a5)
    294c:	fff78793          	addi	a5,a5,-1
    2950:	f8442703          	lw	a4,-124(s0)
    2954:	ff040693          	addi	a3,s0,-16
    2958:	00e68733          	add	a4,a3,a4
    295c:	de874703          	lbu	a4,-536(a4) # de8 <lcd_draw_char+0x1fc>
    2960:	00479793          	slli	a5,a5,0x4
    2964:	ff040693          	addi	a3,s0,-16
    2968:	00f687b3          	add	a5,a3,a5
    296c:	00e787b3          	add	a5,a5,a4
    2970:	dec7c703          	lbu	a4,-532(a5)
    2974:	00100793          	li	a5,1
    2978:	00f71a63          	bne	a4,a5,298c <__stack_size+0x98c>
    297c:	fe444783          	lbu	a5,-28(s0)
    2980:	ffd7f793          	andi	a5,a5,-3
    2984:	fef40223          	sb	a5,-28(s0)
    2988:	01c0006f          	j	29a4 <__stack_size+0x9a4>
    298c:	f8442783          	lw	a5,-124(s0)
    2990:	00178793          	addi	a5,a5,1
    2994:	f8f42223          	sw	a5,-124(s0)
    2998:	f8442703          	lw	a4,-124(s0)
    299c:	00300793          	li	a5,3
    29a0:	f6e7dce3          	bge	a5,a4,2918 <__stack_size+0x918>
    29a4:	fe444783          	lbu	a5,-28(s0)
    29a8:	0027f793          	andi	a5,a5,2
    29ac:	04078863          	beqz	a5,29fc <__stack_size+0x9fc>
    29b0:	f8042023          	sw	zero,-128(s0)
    29b4:	0380006f          	j	29ec <__stack_size+0x9ec>
    29b8:	f8042783          	lw	a5,-128(s0)
    29bc:	ff040713          	addi	a4,s0,-16
    29c0:	00f707b3          	add	a5,a4,a5
    29c4:	de47c783          	lbu	a5,-540(a5)
    29c8:	fff78793          	addi	a5,a5,-1
    29cc:	0ff7f713          	andi	a4,a5,255
    29d0:	f8042783          	lw	a5,-128(s0)
    29d4:	ff040693          	addi	a3,s0,-16
    29d8:	00f687b3          	add	a5,a3,a5
    29dc:	dee78223          	sb	a4,-540(a5)
    29e0:	f8042783          	lw	a5,-128(s0)
    29e4:	00178793          	addi	a5,a5,1
    29e8:	f8f42023          	sw	a5,-128(s0)
    29ec:	f8042703          	lw	a4,-128(s0)
    29f0:	00300793          	li	a5,3
    29f4:	fce7d2e3          	bge	a5,a4,29b8 <__stack_size+0x9b8>
    29f8:	2c40006f          	j	2cbc <__stack_size+0xcbc>
    29fc:	f6042e23          	sw	zero,-132(s0)
    2a00:	0500006f          	j	2a50 <__stack_size+0xa50>
    2a04:	f7c42783          	lw	a5,-132(s0)
    2a08:	ff040713          	addi	a4,s0,-16
    2a0c:	00f707b3          	add	a5,a4,a5
    2a10:	de47c783          	lbu	a5,-540(a5)
    2a14:	00078693          	mv	a3,a5
    2a18:	f7c42783          	lw	a5,-132(s0)
    2a1c:	ff040713          	addi	a4,s0,-16
    2a20:	00f707b3          	add	a5,a4,a5
    2a24:	de87c783          	lbu	a5,-536(a5)
    2a28:	00078713          	mv	a4,a5
    2a2c:	00469793          	slli	a5,a3,0x4
    2a30:	ff040693          	addi	a3,s0,-16
    2a34:	00f687b3          	add	a5,a3,a5
    2a38:	00e787b3          	add	a5,a5,a4
    2a3c:	00100713          	li	a4,1
    2a40:	dee78623          	sb	a4,-532(a5)
    2a44:	f7c42783          	lw	a5,-132(s0)
    2a48:	00178793          	addi	a5,a5,1
    2a4c:	f6f42e23          	sw	a5,-132(s0)
    2a50:	f7c42703          	lw	a4,-132(s0)
    2a54:	00300793          	li	a5,3
    2a58:	fae7d6e3          	bge	a5,a4,2a04 <__stack_size+0xa04>
    2a5c:	fed44703          	lbu	a4,-19(s0)
    2a60:	00070793          	mv	a5,a4
    2a64:	00379793          	slli	a5,a5,0x3
    2a68:	40e787b3          	sub	a5,a5,a4
    2a6c:	00479793          	slli	a5,a5,0x4
    2a70:	00e78733          	add	a4,a5,a4
    2a74:	00300793          	li	a5,3
    2a78:	02f767b3          	rem	a5,a4,a5
    2a7c:	04079463          	bnez	a5,2ac4 <__stack_size+0xac4>
    2a80:	00700793          	li	a5,7
    2a84:	dcf40c23          	sb	a5,-552(s0)
    2a88:	00600793          	li	a5,6
    2a8c:	dcf40ca3          	sb	a5,-551(s0)
    2a90:	00700793          	li	a5,7
    2a94:	dcf40d23          	sb	a5,-550(s0)
    2a98:	00800793          	li	a5,8
    2a9c:	dcf40da3          	sb	a5,-549(s0)
    2aa0:	00b00793          	li	a5,11
    2aa4:	dcf40a23          	sb	a5,-556(s0)
    2aa8:	00a00793          	li	a5,10
    2aac:	dcf40aa3          	sb	a5,-555(s0)
    2ab0:	00a00793          	li	a5,10
    2ab4:	dcf40b23          	sb	a5,-554(s0)
    2ab8:	00a00793          	li	a5,10
    2abc:	dcf40ba3          	sb	a5,-553(s0)
    2ac0:	0d80006f          	j	2b98 <__stack_size+0xb98>
    2ac4:	fed44703          	lbu	a4,-19(s0)
    2ac8:	00070793          	mv	a5,a4
    2acc:	00379793          	slli	a5,a5,0x3
    2ad0:	40e787b3          	sub	a5,a5,a4
    2ad4:	00479793          	slli	a5,a5,0x4
    2ad8:	00e78733          	add	a4,a5,a4
    2adc:	00300793          	li	a5,3
    2ae0:	02f76733          	rem	a4,a4,a5
    2ae4:	00100793          	li	a5,1
    2ae8:	04f71463          	bne	a4,a5,2b30 <__stack_size+0xb30>
    2aec:	00600793          	li	a5,6
    2af0:	dcf40c23          	sb	a5,-552(s0)
    2af4:	00600793          	li	a5,6
    2af8:	dcf40ca3          	sb	a5,-551(s0)
    2afc:	00700793          	li	a5,7
    2b00:	dcf40d23          	sb	a5,-550(s0)
    2b04:	00800793          	li	a5,8
    2b08:	dcf40da3          	sb	a5,-549(s0)
    2b0c:	00b00793          	li	a5,11
    2b10:	dcf40a23          	sb	a5,-556(s0)
    2b14:	00a00793          	li	a5,10
    2b18:	dcf40aa3          	sb	a5,-555(s0)
    2b1c:	00a00793          	li	a5,10
    2b20:	dcf40b23          	sb	a5,-554(s0)
    2b24:	00a00793          	li	a5,10
    2b28:	dcf40ba3          	sb	a5,-553(s0)
    2b2c:	06c0006f          	j	2b98 <__stack_size+0xb98>
    2b30:	fed44703          	lbu	a4,-19(s0)
    2b34:	00070793          	mv	a5,a4
    2b38:	00379793          	slli	a5,a5,0x3
    2b3c:	40e787b3          	sub	a5,a5,a4
    2b40:	00479793          	slli	a5,a5,0x4
    2b44:	00e78733          	add	a4,a5,a4
    2b48:	00300793          	li	a5,3
    2b4c:	02f76733          	rem	a4,a4,a5
    2b50:	00200793          	li	a5,2
    2b54:	04f71263          	bne	a4,a5,2b98 <__stack_size+0xb98>
    2b58:	00600793          	li	a5,6
    2b5c:	dcf40c23          	sb	a5,-552(s0)
    2b60:	00700793          	li	a5,7
    2b64:	dcf40ca3          	sb	a5,-551(s0)
    2b68:	00600793          	li	a5,6
    2b6c:	dcf40d23          	sb	a5,-550(s0)
    2b70:	00700793          	li	a5,7
    2b74:	dcf40da3          	sb	a5,-549(s0)
    2b78:	00b00793          	li	a5,11
    2b7c:	dcf40a23          	sb	a5,-556(s0)
    2b80:	00b00793          	li	a5,11
    2b84:	dcf40aa3          	sb	a5,-555(s0)
    2b88:	00a00793          	li	a5,10
    2b8c:	dcf40b23          	sb	a5,-554(s0)
    2b90:	00a00793          	li	a5,10
    2b94:	dcf40ba3          	sb	a5,-553(s0)
    2b98:	f6042c23          	sw	zero,-136(s0)
    2b9c:	1140006f          	j	2cb0 <__stack_size+0xcb0>
    2ba0:	f6042a23          	sw	zero,-140(s0)
    2ba4:	0ec0006f          	j	2c90 <__stack_size+0xc90>
    2ba8:	f7842783          	lw	a5,-136(s0)
    2bac:	00479793          	slli	a5,a5,0x4
    2bb0:	ff040713          	addi	a4,s0,-16
    2bb4:	00f70733          	add	a4,a4,a5
    2bb8:	f7442783          	lw	a5,-140(s0)
    2bbc:	00f707b3          	add	a5,a4,a5
    2bc0:	dec7c703          	lbu	a4,-532(a5)
    2bc4:	00100793          	li	a5,1
    2bc8:	0cf71c63          	bne	a4,a5,2ca0 <__stack_size+0xca0>
    2bcc:	f7442703          	lw	a4,-140(s0)
    2bd0:	00f00793          	li	a5,15
    2bd4:	0af71863          	bne	a4,a5,2c84 <__stack_size+0xc84>
    2bd8:	f7842783          	lw	a5,-136(s0)
    2bdc:	f6f42823          	sw	a5,-144(s0)
    2be0:	0980006f          	j	2c78 <__stack_size+0xc78>
    2be4:	f6042623          	sw	zero,-148(s0)
    2be8:	0780006f          	j	2c60 <__stack_size+0xc60>
    2bec:	f7042703          	lw	a4,-144(s0)
    2bf0:	00b00793          	li	a5,11
    2bf4:	02f71263          	bne	a4,a5,2c18 <__stack_size+0xc18>
    2bf8:	f7042783          	lw	a5,-144(s0)
    2bfc:	00479793          	slli	a5,a5,0x4
    2c00:	ff040713          	addi	a4,s0,-16
    2c04:	00f70733          	add	a4,a4,a5
    2c08:	f6c42783          	lw	a5,-148(s0)
    2c0c:	00f707b3          	add	a5,a4,a5
    2c10:	de078623          	sb	zero,-532(a5)
    2c14:	0400006f          	j	2c54 <__stack_size+0xc54>
    2c18:	f7042783          	lw	a5,-144(s0)
    2c1c:	00178793          	addi	a5,a5,1
    2c20:	00479793          	slli	a5,a5,0x4
    2c24:	ff040713          	addi	a4,s0,-16
    2c28:	00f70733          	add	a4,a4,a5
    2c2c:	f6c42783          	lw	a5,-148(s0)
    2c30:	00f707b3          	add	a5,a4,a5
    2c34:	dec7c703          	lbu	a4,-532(a5)
    2c38:	f7042783          	lw	a5,-144(s0)
    2c3c:	00479793          	slli	a5,a5,0x4
    2c40:	ff040693          	addi	a3,s0,-16
    2c44:	00f686b3          	add	a3,a3,a5
    2c48:	f6c42783          	lw	a5,-148(s0)
    2c4c:	00f687b3          	add	a5,a3,a5
    2c50:	dee78623          	sb	a4,-532(a5)
    2c54:	f6c42783          	lw	a5,-148(s0)
    2c58:	00178793          	addi	a5,a5,1
    2c5c:	f6f42623          	sw	a5,-148(s0)
    2c60:	f6c42703          	lw	a4,-148(s0)
    2c64:	00f00793          	li	a5,15
    2c68:	f8e7d2e3          	bge	a5,a4,2bec <__stack_size+0xbec>
    2c6c:	f7042783          	lw	a5,-144(s0)
    2c70:	00178793          	addi	a5,a5,1
    2c74:	f6f42823          	sw	a5,-144(s0)
    2c78:	f7042703          	lw	a4,-144(s0)
    2c7c:	00b00793          	li	a5,11
    2c80:	f6e7d2e3          	bge	a5,a4,2be4 <__stack_size+0xbe4>
    2c84:	f7442783          	lw	a5,-140(s0)
    2c88:	00178793          	addi	a5,a5,1
    2c8c:	f6f42a23          	sw	a5,-140(s0)
    2c90:	f7442703          	lw	a4,-140(s0)
    2c94:	00f00793          	li	a5,15
    2c98:	f0e7d8e3          	bge	a5,a4,2ba8 <__stack_size+0xba8>
    2c9c:	0080006f          	j	2ca4 <__stack_size+0xca4>
    2ca0:	00000013          	nop
    2ca4:	f7842783          	lw	a5,-136(s0)
    2ca8:	00178793          	addi	a5,a5,1
    2cac:	f6f42c23          	sw	a5,-136(s0)
    2cb0:	f7842703          	lw	a4,-136(s0)
    2cb4:	00b00793          	li	a5,11
    2cb8:	eee7d4e3          	bge	a5,a4,2ba0 <__stack_size+0xba0>
    2cbc:	f6042423          	sw	zero,-152(s0)
    2cc0:	1d80006f          	j	2e98 <__stack_size+0xe98>
    2cc4:	f6042223          	sw	zero,-156(s0)
    2cc8:	1b80006f          	j	2e80 <__stack_size+0xe80>
    2ccc:	f6842783          	lw	a5,-152(s0)
    2cd0:	00479793          	slli	a5,a5,0x4
    2cd4:	ff040713          	addi	a4,s0,-16
    2cd8:	00f70733          	add	a4,a4,a5
    2cdc:	f6442783          	lw	a5,-156(s0)
    2ce0:	00f707b3          	add	a5,a4,a5
    2ce4:	dec7c783          	lbu	a5,-532(a5)
    2ce8:	12079463          	bnez	a5,2e10 <__stack_size+0xe10>
    2cec:	f6442783          	lw	a5,-156(s0)
    2cf0:	01079793          	slli	a5,a5,0x10
    2cf4:	0107d793          	srli	a5,a5,0x10
    2cf8:	00078713          	mv	a4,a5
    2cfc:	00070793          	mv	a5,a4
    2d00:	00279793          	slli	a5,a5,0x2
    2d04:	00e787b3          	add	a5,a5,a4
    2d08:	00279793          	slli	a5,a5,0x2
    2d0c:	01079513          	slli	a0,a5,0x10
    2d10:	01055513          	srli	a0,a0,0x10
    2d14:	f6842783          	lw	a5,-152(s0)
    2d18:	01079793          	slli	a5,a5,0x10
    2d1c:	0107d793          	srli	a5,a5,0x10
    2d20:	00078713          	mv	a4,a5
    2d24:	00070793          	mv	a5,a4
    2d28:	00279793          	slli	a5,a5,0x2
    2d2c:	00e787b3          	add	a5,a5,a4
    2d30:	00279793          	slli	a5,a5,0x2
    2d34:	01079593          	slli	a1,a5,0x10
    2d38:	0105d593          	srli	a1,a1,0x10
    2d3c:	000107b7          	lui	a5,0x10
    2d40:	fff78713          	addi	a4,a5,-1 # ffff <_data_lma+0xc7e3>
    2d44:	01400693          	li	a3,20
    2d48:	01400613          	li	a2,20
    2d4c:	d85fd0ef          	jal	ra,ad0 <lcd_draw_rect>
    2d50:	f6042023          	sw	zero,-160(s0)
    2d54:	0ac0006f          	j	2e00 <__stack_size+0xe00>
    2d58:	f6042783          	lw	a5,-160(s0)
    2d5c:	ff040713          	addi	a4,s0,-16
    2d60:	00f707b3          	add	a5,a4,a5
    2d64:	de47c783          	lbu	a5,-540(a5)
    2d68:	00078713          	mv	a4,a5
    2d6c:	f6842783          	lw	a5,-152(s0)
    2d70:	08e79263          	bne	a5,a4,2df4 <__stack_size+0xdf4>
    2d74:	f6042783          	lw	a5,-160(s0)
    2d78:	ff040713          	addi	a4,s0,-16
    2d7c:	00f707b3          	add	a5,a4,a5
    2d80:	de87c783          	lbu	a5,-536(a5)
    2d84:	00078713          	mv	a4,a5
    2d88:	f6442783          	lw	a5,-156(s0)
    2d8c:	06e79463          	bne	a5,a4,2df4 <__stack_size+0xdf4>
    2d90:	f6442783          	lw	a5,-156(s0)
    2d94:	01079793          	slli	a5,a5,0x10
    2d98:	0107d793          	srli	a5,a5,0x10
    2d9c:	00078713          	mv	a4,a5
    2da0:	00070793          	mv	a5,a4
    2da4:	00279793          	slli	a5,a5,0x2
    2da8:	00e787b3          	add	a5,a5,a4
    2dac:	00279793          	slli	a5,a5,0x2
    2db0:	01079513          	slli	a0,a5,0x10
    2db4:	01055513          	srli	a0,a0,0x10
    2db8:	f6842783          	lw	a5,-152(s0)
    2dbc:	01079793          	slli	a5,a5,0x10
    2dc0:	0107d793          	srli	a5,a5,0x10
    2dc4:	00078713          	mv	a4,a5
    2dc8:	00070793          	mv	a5,a4
    2dcc:	00279793          	slli	a5,a5,0x2
    2dd0:	00e787b3          	add	a5,a5,a4
    2dd4:	00279793          	slli	a5,a5,0x2
    2dd8:	01079793          	slli	a5,a5,0x10
    2ddc:	0107d793          	srli	a5,a5,0x10
    2de0:	7e000713          	li	a4,2016
    2de4:	01400693          	li	a3,20
    2de8:	01400613          	li	a2,20
    2dec:	00078593          	mv	a1,a5
    2df0:	ce1fd0ef          	jal	ra,ad0 <lcd_draw_rect>
    2df4:	f6042783          	lw	a5,-160(s0)
    2df8:	00178793          	addi	a5,a5,1
    2dfc:	f6f42023          	sw	a5,-160(s0)
    2e00:	f6042703          	lw	a4,-160(s0)
    2e04:	00300793          	li	a5,3
    2e08:	f4e7d8e3          	bge	a5,a4,2d58 <__stack_size+0xd58>
    2e0c:	0680006f          	j	2e74 <__stack_size+0xe74>
    2e10:	f6442783          	lw	a5,-156(s0)
    2e14:	01079793          	slli	a5,a5,0x10
    2e18:	0107d793          	srli	a5,a5,0x10
    2e1c:	00078713          	mv	a4,a5
    2e20:	00070793          	mv	a5,a4
    2e24:	00279793          	slli	a5,a5,0x2
    2e28:	00e787b3          	add	a5,a5,a4
    2e2c:	00279793          	slli	a5,a5,0x2
    2e30:	01079513          	slli	a0,a5,0x10
    2e34:	01055513          	srli	a0,a0,0x10
    2e38:	f6842783          	lw	a5,-152(s0)
    2e3c:	01079793          	slli	a5,a5,0x10
    2e40:	0107d793          	srli	a5,a5,0x10
    2e44:	00078713          	mv	a4,a5
    2e48:	00070793          	mv	a5,a4
    2e4c:	00279793          	slli	a5,a5,0x2
    2e50:	00e787b3          	add	a5,a5,a4
    2e54:	00279793          	slli	a5,a5,0x2
    2e58:	01079593          	slli	a1,a5,0x10
    2e5c:	0105d593          	srli	a1,a1,0x10
    2e60:	000107b7          	lui	a5,0x10
    2e64:	80078713          	addi	a4,a5,-2048 # f800 <_data_lma+0xbfe4>
    2e68:	01400693          	li	a3,20
    2e6c:	01400613          	li	a2,20
    2e70:	c61fd0ef          	jal	ra,ad0 <lcd_draw_rect>
    2e74:	f6442783          	lw	a5,-156(s0)
    2e78:	00178793          	addi	a5,a5,1
    2e7c:	f6f42223          	sw	a5,-156(s0)
    2e80:	f6442703          	lw	a4,-156(s0)
    2e84:	00f00793          	li	a5,15
    2e88:	e4e7d2e3          	bge	a5,a4,2ccc <__stack_size+0xccc>
    2e8c:	f6842783          	lw	a5,-152(s0)
    2e90:	00178793          	addi	a5,a5,1
    2e94:	f6f42423          	sw	a5,-152(s0)
    2e98:	f6842703          	lw	a4,-152(s0)
    2e9c:	00b00793          	li	a5,11
    2ea0:	e2e7d2e3          	bge	a5,a4,2cc4 <__stack_size+0xcc4>
    2ea4:	a6dfe06f          	j	1910 <main+0x14c>

00002ea8 <trap_handler>:
    2ea8:	fe010113          	addi	sp,sp,-32
    2eac:	00112e23          	sw	ra,28(sp)
    2eb0:	00812c23          	sw	s0,24(sp)
    2eb4:	02010413          	addi	s0,sp,32
    2eb8:	fea42623          	sw	a0,-20(s0)
    2ebc:	00000097          	auipc	ra,0x0
    2ec0:	000000e7          	jalr	zero # 0 <_start>
    2ec4:	00000013          	nop
    2ec8:	01c12083          	lw	ra,28(sp)
    2ecc:	01812403          	lw	s0,24(sp)
    2ed0:	02010113          	addi	sp,sp,32
    2ed4:	00008067          	ret

00002ed8 <_init>:
    2ed8:	ff010113          	addi	sp,sp,-16
    2edc:	00812623          	sw	s0,12(sp)
    2ee0:	01010413          	addi	s0,sp,16
    2ee4:	000007b7          	lui	a5,0x0
    2ee8:	06c78793          	addi	a5,a5,108 # 6c <trap_entry>
    2eec:	30579073          	csrw	mtvec,a5
    2ef0:	000027b7          	lui	a5,0x2
    2ef4:	88878793          	addi	a5,a5,-1912 # 1888 <main+0xc4>
    2ef8:	30079073          	csrw	mstatus,a5
    2efc:	00000013          	nop
    2f00:	00c12403          	lw	s0,12(sp)
    2f04:	01010113          	addi	sp,sp,16
    2f08:	00008067          	ret

00002f0c <get_cycle_value>:
    2f0c:	fd010113          	addi	sp,sp,-48
    2f10:	02812623          	sw	s0,44(sp)
    2f14:	03010413          	addi	s0,sp,48
    2f18:	c0002773          	rdcycle	a4
    2f1c:	fee42623          	sw	a4,-20(s0)
    2f20:	fec42703          	lw	a4,-20(s0)
    2f24:	fee42023          	sw	a4,-32(s0)
    2f28:	fe042223          	sw	zero,-28(s0)
    2f2c:	c8002773          	rdcycleh	a4
    2f30:	fce42e23          	sw	a4,-36(s0)
    2f34:	fdc42703          	lw	a4,-36(s0)
    2f38:	00070793          	mv	a5,a4
    2f3c:	00000813          	li	a6,0
    2f40:	00079613          	slli	a2,a5,0x0
    2f44:	00000593          	li	a1,0
    2f48:	fe042683          	lw	a3,-32(s0)
    2f4c:	fe442703          	lw	a4,-28(s0)
    2f50:	00b687b3          	add	a5,a3,a1
    2f54:	00078513          	mv	a0,a5
    2f58:	00d53533          	sltu	a0,a0,a3
    2f5c:	00c70833          	add	a6,a4,a2
    2f60:	01050733          	add	a4,a0,a6
    2f64:	00070813          	mv	a6,a4
    2f68:	fef42023          	sw	a5,-32(s0)
    2f6c:	ff042223          	sw	a6,-28(s0)
    2f70:	fe042783          	lw	a5,-32(s0)
    2f74:	fe442803          	lw	a6,-28(s0)
    2f78:	00078513          	mv	a0,a5
    2f7c:	00080593          	mv	a1,a6
    2f80:	02c12403          	lw	s0,44(sp)
    2f84:	03010113          	addi	sp,sp,48
    2f88:	00008067          	ret

00002f8c <busy_wait>:
    2f8c:	fd010113          	addi	sp,sp,-48
    2f90:	02112623          	sw	ra,44(sp)
    2f94:	02812423          	sw	s0,40(sp)
    2f98:	03212223          	sw	s2,36(sp)
    2f9c:	03312023          	sw	s3,32(sp)
    2fa0:	03010413          	addi	s0,sp,48
    2fa4:	fca42e23          	sw	a0,-36(s0)
    2fa8:	fdc42703          	lw	a4,-36(s0)
    2fac:	03200793          	li	a5,50
    2fb0:	02f707b3          	mul	a5,a4,a5
    2fb4:	fef42623          	sw	a5,-20(s0)
    2fb8:	f55ff0ef          	jal	ra,2f0c <get_cycle_value>
    2fbc:	fea42023          	sw	a0,-32(s0)
    2fc0:	feb42223          	sw	a1,-28(s0)
    2fc4:	00000013          	nop
    2fc8:	f45ff0ef          	jal	ra,2f0c <get_cycle_value>
    2fcc:	00058613          	mv	a2,a1
    2fd0:	00050593          	mv	a1,a0
    2fd4:	fec42783          	lw	a5,-20(s0)
    2fd8:	00078913          	mv	s2,a5
    2fdc:	00000993          	li	s3,0
    2fe0:	fe042683          	lw	a3,-32(s0)
    2fe4:	fe442703          	lw	a4,-28(s0)
    2fe8:	00d907b3          	add	a5,s2,a3
    2fec:	00078513          	mv	a0,a5
    2ff0:	01253533          	sltu	a0,a0,s2
    2ff4:	00e98833          	add	a6,s3,a4
    2ff8:	01050733          	add	a4,a0,a6
    2ffc:	00070813          	mv	a6,a4
    3000:	00080693          	mv	a3,a6
    3004:	00060713          	mv	a4,a2
    3008:	fcd760e3          	bltu	a4,a3,2fc8 <busy_wait+0x3c>
    300c:	00080693          	mv	a3,a6
    3010:	00060713          	mv	a4,a2
    3014:	00e69863          	bne	a3,a4,3024 <busy_wait+0x98>
    3018:	00078713          	mv	a4,a5
    301c:	00058793          	mv	a5,a1
    3020:	fae7e4e3          	bltu	a5,a4,2fc8 <busy_wait+0x3c>
    3024:	00000013          	nop
    3028:	02c12083          	lw	ra,44(sp)
    302c:	02812403          	lw	s0,40(sp)
    3030:	02412903          	lw	s2,36(sp)
    3034:	02012983          	lw	s3,32(sp)
    3038:	03010113          	addi	sp,sp,48
    303c:	00008067          	ret

00003040 <xputc>:
    3040:	fe010113          	addi	sp,sp,-32
    3044:	00112e23          	sw	ra,28(sp)
    3048:	00812c23          	sw	s0,24(sp)
    304c:	02010413          	addi	s0,sp,32
    3050:	00050793          	mv	a5,a0
    3054:	fef407a3          	sb	a5,-17(s0)
    3058:	8081a783          	lw	a5,-2040(gp) # 10000528 <__bss_start>
    305c:	00078e63          	beqz	a5,3078 <xputc+0x38>
    3060:	8081a783          	lw	a5,-2040(gp) # 10000528 <__bss_start>
    3064:	00178693          	addi	a3,a5,1
    3068:	80d1a423          	sw	a3,-2040(gp) # 10000528 <__bss_start>
    306c:	fef44703          	lbu	a4,-17(s0)
    3070:	00e78023          	sb	a4,0(a5)
    3074:	01c0006f          	j	3090 <xputc+0x50>
    3078:	80c1a783          	lw	a5,-2036(gp) # 1000052c <xfunc_out>
    307c:	00078a63          	beqz	a5,3090 <xputc+0x50>
    3080:	80c1a703          	lw	a4,-2036(gp) # 1000052c <xfunc_out>
    3084:	fef44783          	lbu	a5,-17(s0)
    3088:	00078513          	mv	a0,a5
    308c:	000700e7          	jalr	a4
    3090:	01c12083          	lw	ra,28(sp)
    3094:	01812403          	lw	s0,24(sp)
    3098:	02010113          	addi	sp,sp,32
    309c:	00008067          	ret

000030a0 <xputs>:
    30a0:	fe010113          	addi	sp,sp,-32
    30a4:	00112e23          	sw	ra,28(sp)
    30a8:	00812c23          	sw	s0,24(sp)
    30ac:	02010413          	addi	s0,sp,32
    30b0:	fea42623          	sw	a0,-20(s0)
    30b4:	01c0006f          	j	30d0 <xputs+0x30>
    30b8:	fec42783          	lw	a5,-20(s0)
    30bc:	00178713          	addi	a4,a5,1
    30c0:	fee42623          	sw	a4,-20(s0)
    30c4:	0007c783          	lbu	a5,0(a5)
    30c8:	00078513          	mv	a0,a5
    30cc:	f75ff0ef          	jal	ra,3040 <xputc>
    30d0:	fec42783          	lw	a5,-20(s0)
    30d4:	0007c783          	lbu	a5,0(a5)
    30d8:	fe0790e3          	bnez	a5,30b8 <xputs+0x18>
    30dc:	00000013          	nop
    30e0:	01c12083          	lw	ra,28(sp)
    30e4:	01812403          	lw	s0,24(sp)
    30e8:	02010113          	addi	sp,sp,32
    30ec:	00008067          	ret

000030f0 <xvprintf>:
    30f0:	fb010113          	addi	sp,sp,-80
    30f4:	04112623          	sw	ra,76(sp)
    30f8:	04812423          	sw	s0,72(sp)
    30fc:	05010413          	addi	s0,sp,80
    3100:	faa42e23          	sw	a0,-68(s0)
    3104:	fab42c23          	sw	a1,-72(s0)
    3108:	fbc42783          	lw	a5,-68(s0)
    310c:	00178713          	addi	a4,a5,1
    3110:	fae42e23          	sw	a4,-68(s0)
    3114:	0007c783          	lbu	a5,0(a5)
    3118:	fcf40ba3          	sb	a5,-41(s0)
    311c:	fd744783          	lbu	a5,-41(s0)
    3120:	42078e63          	beqz	a5,355c <xvprintf+0x46c>
    3124:	fd744703          	lbu	a4,-41(s0)
    3128:	02500793          	li	a5,37
    312c:	00f70a63          	beq	a4,a5,3140 <xvprintf+0x50>
    3130:	fd744783          	lbu	a5,-41(s0)
    3134:	00078513          	mv	a0,a5
    3138:	f09ff0ef          	jal	ra,3040 <xputc>
    313c:	41c0006f          	j	3558 <xvprintf+0x468>
    3140:	fc042e23          	sw	zero,-36(s0)
    3144:	fbc42783          	lw	a5,-68(s0)
    3148:	00178713          	addi	a4,a5,1
    314c:	fae42e23          	sw	a4,-68(s0)
    3150:	0007c783          	lbu	a5,0(a5)
    3154:	fcf40ba3          	sb	a5,-41(s0)
    3158:	fd744703          	lbu	a4,-41(s0)
    315c:	03000793          	li	a5,48
    3160:	02f71263          	bne	a4,a5,3184 <xvprintf+0x94>
    3164:	00100793          	li	a5,1
    3168:	fcf42e23          	sw	a5,-36(s0)
    316c:	fbc42783          	lw	a5,-68(s0)
    3170:	00178713          	addi	a4,a5,1
    3174:	fae42e23          	sw	a4,-68(s0)
    3178:	0007c783          	lbu	a5,0(a5)
    317c:	fcf40ba3          	sb	a5,-41(s0)
    3180:	02c0006f          	j	31ac <xvprintf+0xbc>
    3184:	fd744703          	lbu	a4,-41(s0)
    3188:	02d00793          	li	a5,45
    318c:	02f71063          	bne	a4,a5,31ac <xvprintf+0xbc>
    3190:	00200793          	li	a5,2
    3194:	fcf42e23          	sw	a5,-36(s0)
    3198:	fbc42783          	lw	a5,-68(s0)
    319c:	00178713          	addi	a4,a5,1
    31a0:	fae42e23          	sw	a4,-68(s0)
    31a4:	0007c783          	lbu	a5,0(a5)
    31a8:	fcf40ba3          	sb	a5,-41(s0)
    31ac:	fe042023          	sw	zero,-32(s0)
    31b0:	0400006f          	j	31f0 <xvprintf+0x100>
    31b4:	fe042703          	lw	a4,-32(s0)
    31b8:	00070793          	mv	a5,a4
    31bc:	00279793          	slli	a5,a5,0x2
    31c0:	00e787b3          	add	a5,a5,a4
    31c4:	00179793          	slli	a5,a5,0x1
    31c8:	00078713          	mv	a4,a5
    31cc:	fd744783          	lbu	a5,-41(s0)
    31d0:	00f707b3          	add	a5,a4,a5
    31d4:	fd078793          	addi	a5,a5,-48
    31d8:	fef42023          	sw	a5,-32(s0)
    31dc:	fbc42783          	lw	a5,-68(s0)
    31e0:	00178713          	addi	a4,a5,1
    31e4:	fae42e23          	sw	a4,-68(s0)
    31e8:	0007c783          	lbu	a5,0(a5)
    31ec:	fcf40ba3          	sb	a5,-41(s0)
    31f0:	fd744703          	lbu	a4,-41(s0)
    31f4:	02f00793          	li	a5,47
    31f8:	00e7f863          	bgeu	a5,a4,3208 <xvprintf+0x118>
    31fc:	fd744703          	lbu	a4,-41(s0)
    3200:	03900793          	li	a5,57
    3204:	fae7f8e3          	bgeu	a5,a4,31b4 <xvprintf+0xc4>
    3208:	fd744703          	lbu	a4,-41(s0)
    320c:	06c00793          	li	a5,108
    3210:	00f70863          	beq	a4,a5,3220 <xvprintf+0x130>
    3214:	fd744703          	lbu	a4,-41(s0)
    3218:	04c00793          	li	a5,76
    321c:	02f71263          	bne	a4,a5,3240 <xvprintf+0x150>
    3220:	fdc42783          	lw	a5,-36(s0)
    3224:	0047e793          	ori	a5,a5,4
    3228:	fcf42e23          	sw	a5,-36(s0)
    322c:	fbc42783          	lw	a5,-68(s0)
    3230:	00178713          	addi	a4,a5,1
    3234:	fae42e23          	sw	a4,-68(s0)
    3238:	0007c783          	lbu	a5,0(a5)
    323c:	fcf40ba3          	sb	a5,-41(s0)
    3240:	fd744783          	lbu	a5,-41(s0)
    3244:	32078063          	beqz	a5,3564 <xvprintf+0x474>
    3248:	fd744783          	lbu	a5,-41(s0)
    324c:	fcf40b23          	sb	a5,-42(s0)
    3250:	fd644703          	lbu	a4,-42(s0)
    3254:	06000793          	li	a5,96
    3258:	00e7f863          	bgeu	a5,a4,3268 <xvprintf+0x178>
    325c:	fd644783          	lbu	a5,-42(s0)
    3260:	fe078793          	addi	a5,a5,-32
    3264:	fcf40b23          	sb	a5,-42(s0)
    3268:	fd644783          	lbu	a5,-42(s0)
    326c:	fbe78793          	addi	a5,a5,-66
    3270:	01600713          	li	a4,22
    3274:	10f76063          	bltu	a4,a5,3374 <xvprintf+0x284>
    3278:	00279713          	slli	a4,a5,0x2
    327c:	100007b7          	lui	a5,0x10000
    3280:	4c478793          	addi	a5,a5,1220 # 100004c4 <_data+0x4c4>
    3284:	00f707b3          	add	a5,a4,a5
    3288:	0007a783          	lw	a5,0(a5)
    328c:	00078067          	jr	a5
    3290:	fb842783          	lw	a5,-72(s0)
    3294:	00478713          	addi	a4,a5,4
    3298:	fae42c23          	sw	a4,-72(s0)
    329c:	0007a783          	lw	a5,0(a5)
    32a0:	fcf42823          	sw	a5,-48(s0)
    32a4:	fe042223          	sw	zero,-28(s0)
    32a8:	0100006f          	j	32b8 <xvprintf+0x1c8>
    32ac:	fe442783          	lw	a5,-28(s0)
    32b0:	00178793          	addi	a5,a5,1
    32b4:	fef42223          	sw	a5,-28(s0)
    32b8:	fd042703          	lw	a4,-48(s0)
    32bc:	fe442783          	lw	a5,-28(s0)
    32c0:	00f707b3          	add	a5,a4,a5
    32c4:	0007c783          	lbu	a5,0(a5)
    32c8:	fe0792e3          	bnez	a5,32ac <xvprintf+0x1bc>
    32cc:	00c0006f          	j	32d8 <xvprintf+0x1e8>
    32d0:	02000513          	li	a0,32
    32d4:	d6dff0ef          	jal	ra,3040 <xputc>
    32d8:	fdc42783          	lw	a5,-36(s0)
    32dc:	0027f793          	andi	a5,a5,2
    32e0:	00079c63          	bnez	a5,32f8 <xvprintf+0x208>
    32e4:	fe442783          	lw	a5,-28(s0)
    32e8:	00178713          	addi	a4,a5,1
    32ec:	fee42223          	sw	a4,-28(s0)
    32f0:	fe042703          	lw	a4,-32(s0)
    32f4:	fce7eee3          	bltu	a5,a4,32d0 <xvprintf+0x1e0>
    32f8:	fd042503          	lw	a0,-48(s0)
    32fc:	da5ff0ef          	jal	ra,30a0 <xputs>
    3300:	00c0006f          	j	330c <xvprintf+0x21c>
    3304:	02000513          	li	a0,32
    3308:	d39ff0ef          	jal	ra,3040 <xputc>
    330c:	fe442783          	lw	a5,-28(s0)
    3310:	00178713          	addi	a4,a5,1
    3314:	fee42223          	sw	a4,-28(s0)
    3318:	fe042703          	lw	a4,-32(s0)
    331c:	fee7e4e3          	bltu	a5,a4,3304 <xvprintf+0x214>
    3320:	2380006f          	j	3558 <xvprintf+0x468>
    3324:	fb842783          	lw	a5,-72(s0)
    3328:	00478713          	addi	a4,a5,4
    332c:	fae42c23          	sw	a4,-72(s0)
    3330:	0007a783          	lw	a5,0(a5)
    3334:	0ff7f793          	andi	a5,a5,255
    3338:	00078513          	mv	a0,a5
    333c:	d05ff0ef          	jal	ra,3040 <xputc>
    3340:	2180006f          	j	3558 <xvprintf+0x468>
    3344:	00200793          	li	a5,2
    3348:	fef42623          	sw	a5,-20(s0)
    334c:	0380006f          	j	3384 <xvprintf+0x294>
    3350:	00800793          	li	a5,8
    3354:	fef42623          	sw	a5,-20(s0)
    3358:	02c0006f          	j	3384 <xvprintf+0x294>
    335c:	00a00793          	li	a5,10
    3360:	fef42623          	sw	a5,-20(s0)
    3364:	0200006f          	j	3384 <xvprintf+0x294>
    3368:	01000793          	li	a5,16
    336c:	fef42623          	sw	a5,-20(s0)
    3370:	0140006f          	j	3384 <xvprintf+0x294>
    3374:	fd744783          	lbu	a5,-41(s0)
    3378:	00078513          	mv	a0,a5
    337c:	cc5ff0ef          	jal	ra,3040 <xputc>
    3380:	1d80006f          	j	3558 <xvprintf+0x468>
    3384:	fdc42783          	lw	a5,-36(s0)
    3388:	0047f793          	andi	a5,a5,4
    338c:	00078c63          	beqz	a5,33a4 <xvprintf+0x2b4>
    3390:	fb842783          	lw	a5,-72(s0)
    3394:	00478713          	addi	a4,a5,4
    3398:	fae42c23          	sw	a4,-72(s0)
    339c:	0007a783          	lw	a5,0(a5)
    33a0:	0340006f          	j	33d4 <xvprintf+0x2e4>
    33a4:	fd644703          	lbu	a4,-42(s0)
    33a8:	04400793          	li	a5,68
    33ac:	00f71c63          	bne	a4,a5,33c4 <xvprintf+0x2d4>
    33b0:	fb842783          	lw	a5,-72(s0)
    33b4:	00478713          	addi	a4,a5,4
    33b8:	fae42c23          	sw	a4,-72(s0)
    33bc:	0007a783          	lw	a5,0(a5)
    33c0:	0140006f          	j	33d4 <xvprintf+0x2e4>
    33c4:	fb842783          	lw	a5,-72(s0)
    33c8:	00478713          	addi	a4,a5,4
    33cc:	fae42c23          	sw	a4,-72(s0)
    33d0:	0007a783          	lw	a5,0(a5)
    33d4:	fcf42c23          	sw	a5,-40(s0)
    33d8:	fd644703          	lbu	a4,-42(s0)
    33dc:	04400793          	li	a5,68
    33e0:	02f71263          	bne	a4,a5,3404 <xvprintf+0x314>
    33e4:	fd842783          	lw	a5,-40(s0)
    33e8:	0007de63          	bgez	a5,3404 <xvprintf+0x314>
    33ec:	fd842783          	lw	a5,-40(s0)
    33f0:	40f007b3          	neg	a5,a5
    33f4:	fcf42c23          	sw	a5,-40(s0)
    33f8:	fdc42783          	lw	a5,-36(s0)
    33fc:	0087e793          	ori	a5,a5,8
    3400:	fcf42e23          	sw	a5,-36(s0)
    3404:	fe042423          	sw	zero,-24(s0)
    3408:	fd842703          	lw	a4,-40(s0)
    340c:	fec42783          	lw	a5,-20(s0)
    3410:	02f777b3          	remu	a5,a4,a5
    3414:	fcf40b23          	sb	a5,-42(s0)
    3418:	fd842703          	lw	a4,-40(s0)
    341c:	fec42783          	lw	a5,-20(s0)
    3420:	02f757b3          	divu	a5,a4,a5
    3424:	fcf42c23          	sw	a5,-40(s0)
    3428:	fd644703          	lbu	a4,-42(s0)
    342c:	00900793          	li	a5,9
    3430:	02e7f463          	bgeu	a5,a4,3458 <xvprintf+0x368>
    3434:	fd744703          	lbu	a4,-41(s0)
    3438:	07800793          	li	a5,120
    343c:	00f71663          	bne	a4,a5,3448 <xvprintf+0x358>
    3440:	02700793          	li	a5,39
    3444:	0080006f          	j	344c <xvprintf+0x35c>
    3448:	00700793          	li	a5,7
    344c:	fd644703          	lbu	a4,-42(s0)
    3450:	00e787b3          	add	a5,a5,a4
    3454:	fcf40b23          	sb	a5,-42(s0)
    3458:	fe842783          	lw	a5,-24(s0)
    345c:	00178713          	addi	a4,a5,1
    3460:	fee42423          	sw	a4,-24(s0)
    3464:	fd644703          	lbu	a4,-42(s0)
    3468:	03070713          	addi	a4,a4,48
    346c:	0ff77713          	andi	a4,a4,255
    3470:	ff040693          	addi	a3,s0,-16
    3474:	00f687b3          	add	a5,a3,a5
    3478:	fce78823          	sb	a4,-48(a5)
    347c:	fd842783          	lw	a5,-40(s0)
    3480:	00078863          	beqz	a5,3490 <xvprintf+0x3a0>
    3484:	fe842703          	lw	a4,-24(s0)
    3488:	00f00793          	li	a5,15
    348c:	f6e7fee3          	bgeu	a5,a4,3408 <xvprintf+0x318>
    3490:	fdc42783          	lw	a5,-36(s0)
    3494:	0087f793          	andi	a5,a5,8
    3498:	02078063          	beqz	a5,34b8 <xvprintf+0x3c8>
    349c:	fe842783          	lw	a5,-24(s0)
    34a0:	00178713          	addi	a4,a5,1
    34a4:	fee42423          	sw	a4,-24(s0)
    34a8:	ff040713          	addi	a4,s0,-16
    34ac:	00f707b3          	add	a5,a4,a5
    34b0:	02d00713          	li	a4,45
    34b4:	fce78823          	sb	a4,-48(a5)
    34b8:	fe842783          	lw	a5,-24(s0)
    34bc:	fef42223          	sw	a5,-28(s0)
    34c0:	fdc42783          	lw	a5,-36(s0)
    34c4:	0017f793          	andi	a5,a5,1
    34c8:	00078663          	beqz	a5,34d4 <xvprintf+0x3e4>
    34cc:	03000793          	li	a5,48
    34d0:	0080006f          	j	34d8 <xvprintf+0x3e8>
    34d4:	02000793          	li	a5,32
    34d8:	fcf40b23          	sb	a5,-42(s0)
    34dc:	0100006f          	j	34ec <xvprintf+0x3fc>
    34e0:	fd644783          	lbu	a5,-42(s0)
    34e4:	00078513          	mv	a0,a5
    34e8:	b59ff0ef          	jal	ra,3040 <xputc>
    34ec:	fdc42783          	lw	a5,-36(s0)
    34f0:	0027f793          	andi	a5,a5,2
    34f4:	00079c63          	bnez	a5,350c <xvprintf+0x41c>
    34f8:	fe442783          	lw	a5,-28(s0)
    34fc:	00178713          	addi	a4,a5,1
    3500:	fee42223          	sw	a4,-28(s0)
    3504:	fe042703          	lw	a4,-32(s0)
    3508:	fce7ece3          	bltu	a5,a4,34e0 <xvprintf+0x3f0>
    350c:	fe842783          	lw	a5,-24(s0)
    3510:	fff78793          	addi	a5,a5,-1
    3514:	fef42423          	sw	a5,-24(s0)
    3518:	fe842783          	lw	a5,-24(s0)
    351c:	ff040713          	addi	a4,s0,-16
    3520:	00f707b3          	add	a5,a4,a5
    3524:	fd07c783          	lbu	a5,-48(a5)
    3528:	00078513          	mv	a0,a5
    352c:	b15ff0ef          	jal	ra,3040 <xputc>
    3530:	fe842783          	lw	a5,-24(s0)
    3534:	fc079ce3          	bnez	a5,350c <xvprintf+0x41c>
    3538:	00c0006f          	j	3544 <xvprintf+0x454>
    353c:	02000513          	li	a0,32
    3540:	b01ff0ef          	jal	ra,3040 <xputc>
    3544:	fe442783          	lw	a5,-28(s0)
    3548:	00178713          	addi	a4,a5,1
    354c:	fee42223          	sw	a4,-28(s0)
    3550:	fe042703          	lw	a4,-32(s0)
    3554:	fee7e4e3          	bltu	a5,a4,353c <xvprintf+0x44c>
    3558:	bb1ff06f          	j	3108 <xvprintf+0x18>
    355c:	00000013          	nop
    3560:	0080006f          	j	3568 <xvprintf+0x478>
    3564:	00000013          	nop
    3568:	00000013          	nop
    356c:	04c12083          	lw	ra,76(sp)
    3570:	04812403          	lw	s0,72(sp)
    3574:	05010113          	addi	sp,sp,80
    3578:	00008067          	ret

0000357c <xprintf>:
    357c:	fb010113          	addi	sp,sp,-80
    3580:	02112623          	sw	ra,44(sp)
    3584:	02812423          	sw	s0,40(sp)
    3588:	03010413          	addi	s0,sp,48
    358c:	fca42e23          	sw	a0,-36(s0)
    3590:	00b42223          	sw	a1,4(s0)
    3594:	00c42423          	sw	a2,8(s0)
    3598:	00d42623          	sw	a3,12(s0)
    359c:	00e42823          	sw	a4,16(s0)
    35a0:	00f42a23          	sw	a5,20(s0)
    35a4:	01042c23          	sw	a6,24(s0)
    35a8:	01142e23          	sw	a7,28(s0)
    35ac:	02040793          	addi	a5,s0,32
    35b0:	fe478793          	addi	a5,a5,-28
    35b4:	fef42623          	sw	a5,-20(s0)
    35b8:	fec42783          	lw	a5,-20(s0)
    35bc:	00078593          	mv	a1,a5
    35c0:	fdc42503          	lw	a0,-36(s0)
    35c4:	b2dff0ef          	jal	ra,30f0 <xvprintf>
    35c8:	00000013          	nop
    35cc:	02c12083          	lw	ra,44(sp)
    35d0:	02812403          	lw	s0,40(sp)
    35d4:	05010113          	addi	sp,sp,80
    35d8:	00008067          	ret

000035dc <uart_putc>:
    35dc:	fe010113          	addi	sp,sp,-32
    35e0:	00812e23          	sw	s0,28(sp)
    35e4:	02010413          	addi	s0,sp,32
    35e8:	00050793          	mv	a5,a0
    35ec:	fef407a3          	sb	a5,-17(s0)
    35f0:	00000013          	nop
    35f4:	300007b7          	lui	a5,0x30000
    35f8:	00478793          	addi	a5,a5,4 # 30000004 <__freertos_irq_stack_top+0x1fffc004>
    35fc:	0007a783          	lw	a5,0(a5)
    3600:	0017f793          	andi	a5,a5,1
    3604:	fe0798e3          	bnez	a5,35f4 <uart_putc+0x18>
    3608:	300007b7          	lui	a5,0x30000
    360c:	00c78793          	addi	a5,a5,12 # 3000000c <__freertos_irq_stack_top+0x1fffc00c>
    3610:	fef44703          	lbu	a4,-17(s0)
    3614:	00e7a023          	sw	a4,0(a5)
    3618:	00000013          	nop
    361c:	01c12403          	lw	s0,28(sp)
    3620:	02010113          	addi	sp,sp,32
    3624:	00008067          	ret

00003628 <uart_getc_nowait>:
    3628:	fe010113          	addi	sp,sp,-32
    362c:	00812e23          	sw	s0,28(sp)
    3630:	02010413          	addi	s0,sp,32
    3634:	300007b7          	lui	a5,0x30000
    3638:	00478793          	addi	a5,a5,4 # 30000004 <__freertos_irq_stack_top+0x1fffc004>
    363c:	0007a783          	lw	a5,0(a5)
    3640:	0027f793          	andi	a5,a5,2
    3644:	02078c63          	beqz	a5,367c <uart_getc_nowait+0x54>
    3648:	300007b7          	lui	a5,0x30000
    364c:	01078793          	addi	a5,a5,16 # 30000010 <__freertos_irq_stack_top+0x1fffc010>
    3650:	0007a783          	lw	a5,0(a5)
    3654:	fef407a3          	sb	a5,-17(s0)
    3658:	300007b7          	lui	a5,0x30000
    365c:	00478793          	addi	a5,a5,4 # 30000004 <__freertos_irq_stack_top+0x1fffc004>
    3660:	0007a703          	lw	a4,0(a5)
    3664:	300007b7          	lui	a5,0x30000
    3668:	00478793          	addi	a5,a5,4 # 30000004 <__freertos_irq_stack_top+0x1fffc004>
    366c:	ffd77713          	andi	a4,a4,-3
    3670:	00e7a023          	sw	a4,0(a5)
    3674:	fef44783          	lbu	a5,-17(s0)
    3678:	0080006f          	j	3680 <uart_getc_nowait+0x58>
    367c:	00000793          	li	a5,0
    3680:	00078513          	mv	a0,a5
    3684:	01c12403          	lw	s0,28(sp)
    3688:	02010113          	addi	sp,sp,32
    368c:	00008067          	ret

00003690 <uart_init>:
    3690:	ff010113          	addi	sp,sp,-16
    3694:	00812623          	sw	s0,12(sp)
    3698:	01010413          	addi	s0,sp,16
    369c:	300007b7          	lui	a5,0x30000
    36a0:	00300713          	li	a4,3
    36a4:	00e7a023          	sw	a4,0(a5) # 30000000 <__freertos_irq_stack_top+0x1fffc000>
    36a8:	00003737          	lui	a4,0x3
    36ac:	5dc70713          	addi	a4,a4,1500 # 35dc <uart_putc>
    36b0:	80e1a623          	sw	a4,-2036(gp) # 1000052c <xfunc_out>
    36b4:	300007b7          	lui	a5,0x30000
    36b8:	00478793          	addi	a5,a5,4 # 30000004 <__freertos_irq_stack_top+0x1fffc004>
    36bc:	0007a703          	lw	a4,0(a5)
    36c0:	300007b7          	lui	a5,0x30000
    36c4:	00478793          	addi	a5,a5,4 # 30000004 <__freertos_irq_stack_top+0x1fffc004>
    36c8:	ffd77713          	andi	a4,a4,-3
    36cc:	00e7a023          	sw	a4,0(a5)
    36d0:	00000013          	nop
    36d4:	00c12403          	lw	s0,12(sp)
    36d8:	01010113          	addi	sp,sp,16
    36dc:	00008067          	ret

000036e0 <spi_write_byte>:
    36e0:	fe010113          	addi	sp,sp,-32
    36e4:	00812e23          	sw	s0,28(sp)
    36e8:	02010413          	addi	s0,sp,32
    36ec:	00050793          	mv	a5,a0
    36f0:	fef407a3          	sb	a5,-17(s0)
    36f4:	500007b7          	lui	a5,0x50000
    36f8:	00478793          	addi	a5,a5,4 # 50000004 <__freertos_irq_stack_top+0x3fffc004>
    36fc:	fef44703          	lbu	a4,-17(s0)
    3700:	00e7a023          	sw	a4,0(a5)
    3704:	500007b7          	lui	a5,0x50000
    3708:	0007a703          	lw	a4,0(a5) # 50000000 <__freertos_irq_stack_top+0x3fffc000>
    370c:	500007b7          	lui	a5,0x50000
    3710:	00176713          	ori	a4,a4,1
    3714:	00e7a023          	sw	a4,0(a5) # 50000000 <__freertos_irq_stack_top+0x3fffc000>
    3718:	00000013          	nop
    371c:	500007b7          	lui	a5,0x50000
    3720:	00878793          	addi	a5,a5,8 # 50000008 <__freertos_irq_stack_top+0x3fffc008>
    3724:	0007a783          	lw	a5,0(a5)
    3728:	0017f793          	andi	a5,a5,1
    372c:	fe0798e3          	bnez	a5,371c <spi_write_byte+0x3c>
    3730:	00000013          	nop
    3734:	01c12403          	lw	s0,28(sp)
    3738:	02010113          	addi	sp,sp,32
    373c:	00008067          	ret

00003740 <memset>:
    3740:	00f00313          	li	t1,15
    3744:	00050713          	mv	a4,a0
    3748:	02c37e63          	bgeu	t1,a2,3784 <memset+0x44>
    374c:	00f77793          	andi	a5,a4,15
    3750:	0a079063          	bnez	a5,37f0 <memset+0xb0>
    3754:	08059263          	bnez	a1,37d8 <memset+0x98>
    3758:	ff067693          	andi	a3,a2,-16
    375c:	00f67613          	andi	a2,a2,15
    3760:	00e686b3          	add	a3,a3,a4
    3764:	00b72023          	sw	a1,0(a4)
    3768:	00b72223          	sw	a1,4(a4)
    376c:	00b72423          	sw	a1,8(a4)
    3770:	00b72623          	sw	a1,12(a4)
    3774:	01070713          	addi	a4,a4,16
    3778:	fed766e3          	bltu	a4,a3,3764 <memset+0x24>
    377c:	00061463          	bnez	a2,3784 <memset+0x44>
    3780:	00008067          	ret
    3784:	40c306b3          	sub	a3,t1,a2
    3788:	00269693          	slli	a3,a3,0x2
    378c:	00000297          	auipc	t0,0x0
    3790:	005686b3          	add	a3,a3,t0
    3794:	00c68067          	jr	12(a3)
    3798:	00b70723          	sb	a1,14(a4)
    379c:	00b706a3          	sb	a1,13(a4)
    37a0:	00b70623          	sb	a1,12(a4)
    37a4:	00b705a3          	sb	a1,11(a4)
    37a8:	00b70523          	sb	a1,10(a4)
    37ac:	00b704a3          	sb	a1,9(a4)
    37b0:	00b70423          	sb	a1,8(a4)
    37b4:	00b703a3          	sb	a1,7(a4)
    37b8:	00b70323          	sb	a1,6(a4)
    37bc:	00b702a3          	sb	a1,5(a4)
    37c0:	00b70223          	sb	a1,4(a4)
    37c4:	00b701a3          	sb	a1,3(a4)
    37c8:	00b70123          	sb	a1,2(a4)
    37cc:	00b700a3          	sb	a1,1(a4)
    37d0:	00b70023          	sb	a1,0(a4)
    37d4:	00008067          	ret
    37d8:	0ff5f593          	andi	a1,a1,255
    37dc:	00859693          	slli	a3,a1,0x8
    37e0:	00d5e5b3          	or	a1,a1,a3
    37e4:	01059693          	slli	a3,a1,0x10
    37e8:	00d5e5b3          	or	a1,a1,a3
    37ec:	f6dff06f          	j	3758 <memset+0x18>
    37f0:	00279693          	slli	a3,a5,0x2
    37f4:	00000297          	auipc	t0,0x0
    37f8:	005686b3          	add	a3,a3,t0
    37fc:	00008293          	mv	t0,ra
    3800:	fa0680e7          	jalr	-96(a3)
    3804:	00028093          	mv	ra,t0
    3808:	ff078793          	addi	a5,a5,-16
    380c:	40f70733          	sub	a4,a4,a5
    3810:	00f60633          	add	a2,a2,a5
    3814:	f6c378e3          	bgeu	t1,a2,3784 <memset+0x44>
    3818:	f3dff06f          	j	3754 <memset+0x14>
